ccopy_reg
_reconstructor
p1
(ccis.frequents
Frequents
p2
c__builtin__
object
p3
NtRp4
(dp5
S'_singletons'
p6
(lp7
g1
(ccis.frequents
Node
p8
g3
NtRp9
(dp10
S'items'
p11
c__builtin__
set
p12
((lp13
I2
atRp14
sS'frequency'
p15
I89460
sS'parents'
p16
g12
((ltRp17
sS'children'
p18
g12
((lp19
g1
(g8
g3
NtRp20
(dp21
g11
g12
((lp22
I2
aI19
atRp23
sg15
I15075
sg16
g12
((lp24
g9
ag1
(g8
g3
NtRp25
(dp26
g11
g12
((lp27
I19
atRp28
sg15
I17061
sg16
g12
((ltRp29
sg18
g12
((lp30
g1
(g8
g3
NtRp31
(dp32
g11
g12
((lp33
I19
aI3
atRp34
sg15
I12700
sg16
g12
((lp35
g1
(g8
g3
NtRp36
(dp37
g11
g12
((lp38
I3
atRp39
sg15
I76272
sg16
g12
((ltRp40
sg18
g12
((lp41
g1
(g8
g3
NtRp42
(dp43
g11
g12
((lp44
I19
aI3
atRp45
sg15
I12700
sg16
g12
((lp46
g36
ag25
atRp47
sg18
g12
((ltRp48
sbag1
(g8
g3
NtRp49
(dp50
g11
g12
((lp51
I3
aI22
atRp52
sg15
I11600
sg16
g12
((lp53
g36
ag1
(g8
g3
NtRp54
(dp55
g11
g12
((lp56
I22
atRp57
sg15
I14601
sg16
g12
((ltRp58
sg18
g12
((lp59
g1
(g8
g3
NtRp60
(dp61
g11
g12
((lp62
I2
aI22
atRp63
sg15
I13100
sg16
g12
((lp64
g9
ag54
atRp65
sg18
g12
((lp66
g1
(g8
g3
NtRp67
(dp68
g11
g12
((lp69
I2
aI3
aI22
atRp70
sg15
I10025
sg16
g12
((lp71
g60
ag49
ag1
(g8
g3
NtRp72
(dp73
g11
g12
((lp74
I2
aI3
atRp75
sg15
I68050
sg16
g12
((lp76
g9
ag36
atRp77
sg18
g12
((lp78
g1
(g8
g3
NtRp79
(dp80
g11
g12
((lp81
I2
aI3
aI5
atRp82
sg15
I37800
sg16
g12
((lp83
g1
(g8
g3
NtRp84
(dp85
g11
g12
((lp86
I3
aI5
atRp87
sg15
I42300
sg16
g12
((lp88
g36
ag1
(g8
g3
NtRp89
(dp90
g11
g12
((lp91
I5
atRp92
sg15
I55474
sg16
g12
((ltRp93
sg18
g12
((lp94
g1
(g8
g3
NtRp95
(dp96
g11
g12
((lp97
I5
aI6
atRp98
sg15
I27150
sg16
g12
((lp99
g1
(g8
g3
NtRp100
(dp101
g11
g12
((lp102
I6
atRp103
sg15
I48664
sg16
g12
((ltRp104
sg18
g12
((lp105
g1
(g8
g3
NtRp106
(dp107
g11
g12
((lp108
I10
aI6
atRp109
sg15
I15650
sg16
g12
((lp110
g100
ag1
(g8
g3
NtRp111
(dp112
g11
g12
((lp113
I10
atRp114
sg15
I31741
sg16
g12
((ltRp115
sg18
g12
((lp116
g1
(g8
g3
NtRp117
(dp118
g11
g12
((lp119
I10
aI5
atRp120
sg15
I17675
sg16
g12
((lp121
g89
ag111
atRp122
sg18
g12
((lp123
g1
(g8
g3
NtRp124
(dp125
g11
g12
((lp126
I10
aI3
aI5
atRp127
sg15
I13350
sg16
g12
((lp128
g1
(g8
g3
NtRp129
(dp130
g11
g12
((lp131
I10
aI3
atRp132
sg15
I24250
sg16
g12
((lp133
g36
ag111
atRp134
sg18
g12
((lp135
g1
(g8
g3
NtRp136
(dp137
g11
g12
((lp138
I10
aI3
aI4
atRp139
sg15
I15875
sg16
g12
((lp140
g129
ag1
(g8
g3
NtRp141
(dp142
g11
g12
((lp143
I3
aI4
atRp144
sg15
I50575
sg16
g12
((lp145
g36
ag1
(g8
g3
NtRp146
(dp147
g11
g12
((lp148
I4
atRp149
sg15
I64835
sg16
g12
((ltRp150
sg18
g12
((lp151
g1
(g8
g3
NtRp152
(dp153
g11
g12
((lp154
I9
aI4
atRp155
sg15
I22275
sg16
g12
((lp156
g1
(g8
g3
NtRp157
(dp158
g11
g12
((lp159
I9
atRp160
sg15
I34609
sg16
g12
((ltRp161
sg18
g12
((lp162
g1
(g8
g3
NtRp163
(dp164
g11
g12
((lp165
I9
aI2
atRp166
sg15
I31150
sg16
g12
((lp167
g9
ag157
atRp168
sg18
g12
((lp169
g1
(g8
g3
NtRp170
(dp171
g11
g12
((lp172
I9
aI2
aI10
atRp173
sg15
I10250
sg16
g12
((lp174
g1
(g8
g3
NtRp175
(dp176
g11
g12
((lp177
I9
aI10
atRp178
sg15
I11250
sg16
g12
((lp179
g157
ag111
atRp180
sg18
g12
((lp181
g170
ag1
(g8
g3
NtRp182
(dp183
g11
g12
((lp184
I9
aI2
aI10
atRp185
sg15
I10250
sg16
g12
((lp186
g175
ag1
(g8
g3
NtRp187
(dp188
g11
g12
((lp189
I2
aI10
atRp190
sg15
I28325
sg16
g12
((lp191
g9
ag111
atRp192
sg18
g12
((lp193
g170
ag182
ag1
(g8
g3
NtRp194
(dp195
g11
g12
((lp196
I2
aI4
aI10
atRp197
sg15
I18475
sg16
g12
((lp198
g1
(g8
g3
NtRp199
(dp200
g11
g12
((lp201
I2
aI4
atRp202
sg15
I58375
sg16
g12
((lp203
g9
ag146
atRp204
sg18
g12
((lp205
g1
(g8
g3
NtRp206
(dp207
g11
g12
((lp208
I8
aI2
aI4
atRp209
sg15
I23025
sg16
g12
((lp210
g199
ag1
(g8
g3
NtRp211
(dp212
g11
g12
((lp213
I8
aI4
atRp214
sg15
I25975
sg16
g12
((lp215
g1
(g8
g3
NtRp216
(dp217
g11
g12
((lp218
I8
atRp219
sg15
I38305
sg16
g12
((ltRp220
sg18
g12
((lp221
g1
(g8
g3
NtRp222
(dp223
g11
g12
((lp224
I8
aI1
atRp225
sg15
I38925
sg16
g12
((lp226
g216
ag1
(g8
g3
NtRp227
(dp228
g11
g12
((lp229
I1
atRp230
sg15
I99316
sg16
g12
((ltRp231
sg18
g12
((lp232
g1
(g8
g3
NtRp233
(dp234
g11
g12
((lp235
I32
aI1
atRp236
sg15
I10950
sg16
g12
((lp237
g1
(g8
g3
NtRp238
(dp239
g11
g12
((lp240
I32
atRp241
sg15
I10009
sg16
g12
((ltRp242
sg18
g12
((lp243
g233
ag1
(g8
g3
NtRp244
(dp245
g11
g12
((lp246
I32
aI2
atRp247
sg15
I10050
sg16
g12
((lp248
g9
ag238
atRp249
sg18
g12
((lp250
g1
(g8
g3
NtRp251
(dp252
g11
g12
((lp253
I32
aI1
aI2
atRp254
sg15
I10000
sg16
g12
((lp255
g1
(g8
g3
NtRp256
(dp257
g11
g12
((lp258
I1
aI2
atRp259
sg15
I88825
sg16
g12
((lp260
g9
ag227
atRp261
sg18
g12
((lp262
g1
(g8
g3
NtRp263
(dp264
g11
g12
((lp265
I1
aI2
aI19
atRp266
sg15
I15000
sg16
g12
((lp267
g256
ag20
ag1
(g8
g3
NtRp268
(dp269
g11
g12
((lp270
I1
aI19
atRp271
sg15
I17100
sg16
g12
((lp272
g227
ag25
atRp273
sg18
g12
((lp274
g1
(g8
g3
NtRp275
(dp276
g11
g12
((lp277
I1
aI19
aI4
atRp278
sg15
I11075
sg16
g12
((lp279
g1
(g8
g3
NtRp280
(dp281
g11
g12
((lp282
I1
aI4
atRp283
sg15
I65675
sg16
g12
((lp284
g146
ag227
atRp285
sg18
g12
((lp286
g1
(g8
g3
NtRp287
(dp288
g11
g12
((lp289
I1
aI4
aI12
atRp290
sg15
I17375
sg16
g12
((lp291
g280
ag1
(g8
g3
NtRp292
(dp293
g11
g12
((lp294
I1
aI12
atRp295
sg15
I26600
sg16
g12
((lp296
g227
ag1
(g8
g3
NtRp297
(dp298
g11
g12
((lp299
I12
atRp300
sg15
I26474
sg16
g12
((ltRp301
sg18
g12
((lp302
g1
(g8
g3
NtRp303
(dp304
g11
g12
((lp305
I12
aI4
atRp306
sg15
I17525
sg16
g12
((lp307
g146
ag297
atRp308
sg18
g12
((lp309
g287
ag1
(g8
g3
NtRp310
(dp311
g11
g12
((lp312
I4
aI3
aI12
atRp313
sg15
I13175
sg16
g12
((lp314
g303
ag141
ag1
(g8
g3
NtRp315
(dp316
g11
g12
((lp317
I3
aI12
atRp318
sg15
I20525
sg16
g12
((lp319
g36
ag297
atRp320
sg18
g12
((lp321
g1
(g8
g3
NtRp322
(dp323
g11
g12
((lp324
I3
aI12
aI5
atRp325
sg15
I11125
sg16
g12
((lp326
g315
ag84
ag1
(g8
g3
NtRp327
(dp328
g11
g12
((lp329
I12
aI5
atRp330
sg15
I14375
sg16
g12
((lp331
g89
ag297
atRp332
sg18
g12
((lp333
g322
ag1
(g8
g3
NtRp334
(dp335
g11
g12
((lp336
I1
aI12
aI5
atRp337
sg15
I14275
sg16
g12
((lp338
g327
ag1
(g8
g3
NtRp339
(dp340
g11
g12
((lp341
I1
aI5
atRp342
sg15
I55275
sg16
g12
((lp343
g89
ag227
atRp344
sg18
g12
((lp345
g1
(g8
g3
NtRp346
(dp347
g11
g12
((lp348
I1
aI5
aI17
atRp349
sg15
I10275
sg16
g12
((lp350
g1
(g8
g3
NtRp351
(dp352
g11
g12
((lp353
I17
aI5
atRp354
sg15
I10400
sg16
g12
((lp355
g1
(g8
g3
NtRp356
(dp357
g11
g12
((lp358
I17
atRp359
sg15
I19016
sg16
g12
((ltRp360
sg18
g12
((lp361
g351
ag1
(g8
g3
NtRp362
(dp363
g11
g12
((lp364
I17
aI4
atRp365
sg15
I12025
sg16
g12
((lp366
g356
ag146
atRp367
sg18
g12
((lp368
g1
(g8
g3
NtRp369
(dp370
g11
g12
((lp371
I1
aI4
aI17
atRp372
sg15
I11925
sg16
g12
((lp373
g280
ag1
(g8
g3
NtRp374
(dp375
g11
g12
((lp376
I1
aI17
atRp377
sg15
I18275
sg16
g12
((lp378
g356
ag227
atRp379
sg18
g12
((lp380
g346
ag1
(g8
g3
NtRp381
(dp382
g11
g12
((lp383
I1
aI4
aI17
atRp384
sg15
I11925
sg16
g12
((lp385
g280
ag374
ag362
atRp386
sg18
g12
((ltRp387
sbag1
(g8
g3
NtRp388
(dp389
g11
g12
((lp390
I1
aI3
aI17
atRp391
sg15
I13400
sg16
g12
((lp392
g1
(g8
g3
NtRp393
(dp394
g11
g12
((lp395
I1
aI3
atRp396
sg15
I75875
sg16
g12
((lp397
g36
ag227
atRp398
sg18
g12
((lp399
g1
(g8
g3
NtRp400
(dp401
g11
g12
((lp402
I24
aI1
aI3
atRp403
sg15
I11350
sg16
g12
((lp404
g393
ag1
(g8
g3
NtRp405
(dp406
g11
g12
((lp407
I24
aI3
atRp408
sg15
I11425
sg16
g12
((lp409
g36
ag1
(g8
g3
NtRp410
(dp411
g11
g12
((lp412
I24
atRp413
sg15
I13516
sg16
g12
((ltRp414
sg18
g12
((lp415
g1
(g8
g3
NtRp416
(dp417
g11
g12
((lp418
I24
aI2
atRp419
sg15
I13250
sg16
g12
((lp420
g9
ag410
atRp421
sg18
g12
((lp422
g1
(g8
g3
NtRp423
(dp424
g11
g12
((lp425
I24
aI2
aI3
atRp426
sg15
I10075
sg16
g12
((lp427
g416
ag72
ag405
atRp428
sg18
g12
((lp429
g1
(g8
g3
NtRp430
(dp431
g11
g12
((lp432
I24
aI1
aI2
aI3
atRp433
sg15
I12775
sg16
g12
((lp434
g1
(g8
g3
NtRp435
(dp436
g11
g12
((lp437
I1
aI2
aI3
atRp438
sg15
I67725
sg16
g12
((lp439
g256
ag72
ag393
atRp440
sg18
g12
((lp441
g1
(g8
g3
NtRp442
(dp443
g11
g12
((lp444
I1
aI2
aI3
aI17
atRp445
sg15
I12150
sg16
g12
((lp446
g435
ag388
ag1
(g8
g3
NtRp447
(dp448
g11
g12
((lp449
I17
aI2
aI3
atRp450
sg15
I12250
sg16
g12
((lp451
g1
(g8
g3
NtRp452
(dp453
g11
g12
((lp454
I17
aI3
atRp455
sg15
I13500
sg16
g12
((lp456
g356
ag36
atRp457
sg18
g12
((lp458
g388
ag447
ag1
(g8
g3
NtRp459
(dp460
g11
g12
((lp461
I1
aI3
aI17
atRp462
sg15
I13400
sg16
g12
((lp463
g393
ag374
ag452
atRp464
sg18
g12
((ltRp465
sbatRp466
sbag72
ag1
(g8
g3
NtRp467
(dp468
g11
g12
((lp469
I17
aI2
atRp470
sg15
I16525
sg16
g12
((lp471
g9
ag356
atRp472
sg18
g12
((lp473
g1
(g8
g3
NtRp474
(dp475
g11
g12
((lp476
I1
aI2
aI17
atRp477
sg15
I16350
sg16
g12
((lp478
g256
ag374
ag467
atRp479
sg18
g12
((ltRp480
sbag1
(g8
g3
NtRp481
(dp482
g11
g12
((lp483
I1
aI2
aI17
atRp484
sg15
I16350
sg16
g12
((lp485
g256
ag374
ag467
atRp486
sg18
g12
((lp487
g442
ag1
(g8
g3
NtRp488
(dp489
g11
g12
((lp490
I1
aI2
aI4
aI17
atRp491
sg15
I13950
sg16
g12
((lp492
g1
(g8
g3
NtRp493
(dp494
g11
g12
((lp495
I1
aI2
aI4
atRp496
sg15
I58075
sg16
g12
((lp497
g280
ag199
ag256
atRp498
sg18
g12
((lp499
g1
(g8
g3
NtRp500
(dp501
g11
g12
((lp502
I1
aI2
aI4
aI7
atRp503
sg15
I27450
sg16
g12
((lp504
g493
ag1
(g8
g3
NtRp505
(dp506
g11
g12
((lp507
I1
aI4
aI7
atRp508
sg15
I27875
sg16
g12
((lp509
g1
(g8
g3
NtRp510
(dp511
g11
g12
((lp512
I4
aI7
atRp513
sg15
I28075
sg16
g12
((lp514
g146
ag1
(g8
g3
NtRp515
(dp516
g11
g12
((lp517
I7
atRp518
sg15
I43039
sg16
g12
((ltRp519
sg18
g12
((lp520
g1
(g8
g3
NtRp521
(dp522
g11
g12
((lp523
I14
aI7
atRp524
sg15
I10350
sg16
g12
((lp525
g1
(g8
g3
NtRp526
(dp527
g11
g12
((lp528
I14
atRp529
sg15
I23061
sg16
g12
((ltRp530
sg18
g12
((lp531
g1
(g8
g3
NtRp532
(dp533
g11
g12
((lp534
I4
aI14
atRp535
sg15
I15450
sg16
g12
((lp536
g146
ag526
atRp537
sg18
g12
((lp538
g1
(g8
g3
NtRp539
(dp540
g11
g12
((lp541
I3
aI4
aI14
atRp542
sg15
I11825
sg16
g12
((lp543
g532
ag1
(g8
g3
NtRp544
(dp545
g11
g12
((lp546
I3
aI14
atRp547
sg15
I17150
sg16
g12
((lp548
g36
ag526
atRp549
sg18
g12
((lp550
g539
ag1
(g8
g3
NtRp551
(dp552
g11
g12
((lp553
I2
aI3
aI14
atRp554
sg15
I14975
sg16
g12
((lp555
g544
ag72
ag1
(g8
g3
NtRp556
(dp557
g11
g12
((lp558
I2
aI14
atRp559
sg15
I20375
sg16
g12
((lp560
g9
ag526
atRp561
sg18
g12
((lp562
g1
(g8
g3
NtRp563
(dp564
g11
g12
((lp565
I1
aI2
aI14
atRp566
sg15
I20200
sg16
g12
((lp567
g256
ag556
ag1
(g8
g3
NtRp568
(dp569
g11
g12
((lp570
I1
aI14
atRp571
sg15
I22900
sg16
g12
((lp572
g227
ag526
atRp573
sg18
g12
((lp574
g1
(g8
g3
NtRp575
(dp576
g11
g12
((lp577
I1
aI3
aI14
atRp578
sg15
I17000
sg16
g12
((lp579
g393
ag544
ag568
atRp580
sg18
g12
((lp581
g1
(g8
g3
NtRp582
(dp583
g11
g12
((lp584
I1
aI2
aI3
aI14
atRp585
sg15
I12150
sg16
g12
((lp586
g435
ag551
ag575
ag563
atRp587
sg18
g12
((lp588
g1
(g8
g3
NtRp589
(dp590
g11
g12
((lp591
I1
aI2
aI3
aI4
aI14
atRp592
sg15
I11300
sg16
g12
((lp593
g1
(g8
g3
NtRp594
(dp595
g11
g12
((lp596
I1
aI3
aI4
aI14
atRp597
sg15
I12275
sg16
g12
((lp598
g539
ag1
(g8
g3
NtRp599
(dp600
g11
g12
((lp601
I1
aI3
aI4
atRp602
sg15
I50325
sg16
g12
((lp603
g280
ag141
ag393
atRp604
sg18
g12
((lp605
g1
(g8
g3
NtRp606
(dp607
g11
g12
((lp608
I1
aI3
aI4
aI9
atRp609
sg15
I10975
sg16
g12
((lp610
g1
(g8
g3
NtRp611
(dp612
g11
g12
((lp613
I1
aI4
aI9
atRp614
sg15
I22125
sg16
g12
((lp615
g280
ag1
(g8
g3
NtRp616
(dp617
g11
g12
((lp618
I1
aI9
atRp619
sg15
I34475
sg16
g12
((lp620
g157
ag227
atRp621
sg18
g12
((lp622
g1
(g8
g3
NtRp623
(dp624
g11
g12
((lp625
I1
aI5
aI9
atRp626
sg15
I18975
sg16
g12
((lp627
g1
(g8
g3
NtRp628
(dp629
g11
g12
((lp630
I9
aI5
atRp631
sg15
I19125
sg16
g12
((lp632
g157
ag89
atRp633
sg18
g12
((lp634
g1
(g8
g3
NtRp635
(dp636
g11
g12
((lp637
I9
aI2
aI5
atRp638
sg15
I17175
sg16
g12
((lp639
g628
ag1
(g8
g3
NtRp640
(dp641
g11
g12
((lp642
I2
aI5
atRp643
sg15
I49375
sg16
g12
((lp644
g9
ag89
atRp645
sg18
g12
((lp646
g1
(g8
g3
NtRp647
(dp648
g11
g12
((lp649
I2
aI5
aI14
atRp650
sg15
I11425
sg16
g12
((lp651
g640
ag1
(g8
g3
NtRp652
(dp653
g11
g12
((lp654
I5
aI14
atRp655
sg15
I12975
sg16
g12
((lp656
g89
ag526
atRp657
sg18
g12
((lp658
g647
ag1
(g8
g3
NtRp659
(dp660
g11
g12
((lp661
I1
aI5
aI14
atRp662
sg15
I12850
sg16
g12
((lp663
g568
ag339
ag652
atRp664
sg18
g12
((lp665
g1
(g8
g3
NtRp666
(dp667
g11
g12
((lp668
I1
aI2
aI5
aI14
atRp669
sg15
I10725
sg16
g12
((lp670
g563
ag647
ag1
(g8
g3
NtRp671
(dp672
g11
g12
((lp673
I1
aI2
aI5
atRp674
sg15
I49100
sg16
g12
((lp675
g256
ag339
ag640
atRp676
sg18
g12
((lp677
g1
(g8
g3
NtRp678
(dp679
g11
g12
((lp680
I1
aI2
aI11
aI5
atRp681
sg15
I13025
sg16
g12
((lp682
g1
(g8
g3
NtRp683
(dp684
g11
g12
((lp685
I1
aI11
aI5
atRp686
sg15
I15825
sg16
g12
((lp687
g1
(g8
g3
NtRp688
(dp689
g11
g12
((lp690
I11
aI5
atRp691
sg15
I15900
sg16
g12
((lp692
g1
(g8
g3
NtRp693
(dp694
g11
g12
((lp695
I11
atRp696
sg15
I28601
sg16
g12
((ltRp697
sg18
g12
((lp698
g1
(g8
g3
NtRp699
(dp700
g11
g12
((lp701
I3
aI11
atRp702
sg15
I22100
sg16
g12
((lp703
g693
ag36
atRp704
sg18
g12
((ltRp705
sbag1
(g8
g3
NtRp706
(dp707
g11
g12
((lp708
I2
aI11
atRp709
sg15
I25825
sg16
g12
((lp710
g9
ag693
atRp711
sg18
g12
((lp712
g1
(g8
g3
NtRp713
(dp714
g11
g12
((lp715
I2
aI11
aI5
atRp716
sg15
I13975
sg16
g12
((lp717
g688
ag706
ag640
atRp718
sg18
g12
((lp719
g678
ag1
(g8
g3
NtRp720
(dp721
g11
g12
((lp722
I3
aI2
aI11
aI5
atRp723
sg15
I15225
sg16
g12
((lp724
g713
ag79
ag1
(g8
g3
NtRp725
(dp726
g11
g12
((lp727
I11
aI3
aI5
atRp728
sg15
I12075
sg16
g12
((lp729
g84
ag1
(g8
g3
NtRp730
(dp731
g11
g12
((lp732
I3
aI11
atRp733
sg15
I22100
sg16
g12
((lp734
g693
ag36
atRp735
sg18
g12
((lp736
g1
(g8
g3
NtRp737
(dp738
g11
g12
((lp739
I11
aI3
aI5
atRp740
sg15
I12075
sg16
g12
((lp741
g84
ag730
ag688
atRp742
sg18
g12
((ltRp743
sbag1
(g8
g3
NtRp744
(dp745
g11
g12
((lp746
I11
aI1
aI3
atRp747
sg15
I22000
sg16
g12
((lp748
g393
ag730
ag1
(g8
g3
NtRp749
(dp750
g11
g12
((lp751
I1
aI11
atRp752
sg15
I28875
sg16
g12
((lp753
g693
ag227
atRp754
sg18
g12
((lp755
g1
(g8
g3
NtRp756
(dp757
g11
g12
((lp758
I1
aI11
aI6
atRp759
sg15
I13975
sg16
g12
((lp760
g1
(g8
g3
NtRp761
(dp762
g11
g12
((lp763
I1
aI6
atRp764
sg15
I49075
sg16
g12
((lp765
g100
ag227
atRp766
sg18
g12
((lp767
g756
ag1
(g8
g3
NtRp768
(dp769
g11
g12
((lp770
I1
aI4
aI6
atRp771
sg15
I31500
sg16
g12
((lp772
g1
(g8
g3
NtRp773
(dp774
g11
g12
((lp775
I4
aI6
atRp776
sg15
I31675
sg16
g12
((lp777
g100
ag146
atRp778
sg18
g12
((lp779
g1
(g8
g3
NtRp780
(dp781
g11
g12
((lp782
I3
aI4
aI6
atRp783
sg15
I23500
sg16
g12
((lp784
g773
ag1
(g8
g3
NtRp785
(dp786
g11
g12
((lp787
I3
aI6
atRp788
sg15
I36425
sg16
g12
((lp789
g100
ag36
atRp790
sg18
g12
((lp791
g780
ag1
(g8
g3
NtRp792
(dp793
g11
g12
((lp794
I2
aI3
aI6
atRp795
sg15
I32200
sg16
g12
((lp796
g1
(g8
g3
NtRp797
(dp798
g11
g12
((lp799
I2
aI6
atRp800
sg15
I43550
sg16
g12
((lp801
g9
ag100
atRp802
sg18
g12
((lp803
g792
ag1
(g8
g3
NtRp804
(dp805
g11
g12
((lp806
I9
aI2
aI6
atRp807
sg15
I14875
sg16
g12
((lp808
g797
ag1
(g8
g3
NtRp809
(dp810
g11
g12
((lp811
I9
aI6
atRp812
sg15
I16725
sg16
g12
((lp813
g157
ag100
atRp814
sg18
g12
((lp815
g804
ag1
(g8
g3
NtRp816
(dp817
g11
g12
((lp818
I1
aI6
aI9
atRp819
sg15
I16625
sg16
g12
((lp820
g761
ag616
ag809
atRp821
sg18
g12
((lp822
g1
(g8
g3
NtRp823
(dp824
g11
g12
((lp825
I1
aI3
aI6
aI9
atRp826
sg15
I17400
sg16
g12
((lp827
g816
ag1
(g8
g3
NtRp828
(dp829
g11
g12
((lp830
I1
aI3
aI9
atRp831
sg15
I26450
sg16
g12
((lp832
g393
ag616
ag1
(g8
g3
NtRp833
(dp834
g11
g12
((lp835
I9
aI3
atRp836
sg15
I26575
sg16
g12
((lp837
g157
ag36
atRp838
sg18
g12
((lp839
g1
(g8
g3
NtRp840
(dp841
g11
g12
((lp842
I9
aI3
aI7
atRp843
sg15
I10800
sg16
g12
((lp844
g1
(g8
g3
NtRp845
(dp846
g11
g12
((lp847
I3
aI7
atRp848
sg15
I32050
sg16
g12
((lp849
g36
ag515
atRp850
sg18
g12
((lp851
g1
(g8
g3
NtRp852
(dp853
g11
g12
((lp854
I10
aI3
aI7
atRp855
sg15
I10275
sg16
g12
((lp856
g129
ag845
ag1
(g8
g3
NtRp857
(dp858
g11
g12
((lp859
I10
aI7
atRp860
sg15
I13825
sg16
g12
((lp861
g111
ag515
atRp862
sg18
g12
((lp863
g1
(g8
g3
NtRp864
(dp865
g11
g12
((lp866
I2
aI10
aI7
atRp867
sg15
I12425
sg16
g12
((lp868
g857
ag187
ag1
(g8
g3
NtRp869
(dp870
g11
g12
((lp871
I2
aI7
atRp872
sg15
I37575
sg16
g12
((lp873
g9
ag515
atRp874
sg18
g12
((lp875
g864
ag1
(g8
g3
NtRp876
(dp877
g11
g12
((lp878
I2
aI3
aI7
atRp879
sg15
I28300
sg16
g12
((lp880
g845
ag869
ag72
atRp881
sg18
g12
((lp882
g1
(g8
g3
NtRp883
(dp884
g11
g12
((lp885
I8
aI2
aI3
aI7
atRp886
sg15
I14850
sg16
g12
((lp887
g1
(g8
g3
NtRp888
(dp889
g11
g12
((lp890
I8
aI2
aI7
atRp891
sg15
I14025
sg16
g12
((lp892
g1
(g8
g3
NtRp893
(dp894
g11
g12
((lp895
I8
aI7
atRp896
sg15
I15775
sg16
g12
((lp897
g216
ag515
atRp898
sg18
g12
((lp899
g888
ag1
(g8
g3
NtRp900
(dp901
g11
g12
((lp902
I8
aI4
aI7
atRp903
sg15
I10575
sg16
g12
((lp904
g510
ag211
ag893
atRp905
sg18
g12
((lp906
g1
(g8
g3
NtRp907
(dp908
g11
g12
((lp909
I8
aI1
aI4
aI7
atRp910
sg15
I12125
sg16
g12
((lp911
g1
(g8
g3
NtRp912
(dp913
g11
g12
((lp914
I8
aI1
aI7
atRp915
sg15
I15625
sg16
g12
((lp916
g893
ag1
(g8
g3
NtRp917
(dp918
g11
g12
((lp919
I1
aI7
atRp920
sg15
I42150
sg16
g12
((lp921
g227
ag515
atRp922
sg18
g12
((lp923
g912
ag1
(g8
g3
NtRp924
(dp925
g11
g12
((lp926
I1
aI11
aI7
atRp927
sg15
I12100
sg16
g12
((lp928
g1
(g8
g3
NtRp929
(dp930
g11
g12
((lp931
I11
aI7
atRp932
sg15
I12200
sg16
g12
((lp933
g693
ag515
atRp934
sg18
g12
((lp935
g1
(g8
g3
NtRp936
(dp937
g11
g12
((lp938
I2
aI11
aI7
atRp939
sg15
I10700
sg16
g12
((lp940
g929
ag706
ag869
atRp941
sg18
g12
((lp942
g1
(g8
g3
NtRp943
(dp944
g11
g12
((lp945
I1
aI2
aI11
aI7
atRp946
sg15
I13900
sg16
g12
((lp947
g924
ag1
(g8
g3
NtRp948
(dp949
g11
g12
((lp950
I1
aI2
aI11
atRp951
sg15
I25700
sg16
g12
((lp952
g256
ag706
ag749
atRp953
sg18
g12
((lp954
g678
ag1
(g8
g3
NtRp955
(dp956
g11
g12
((lp957
I1
aI2
aI11
aI6
atRp958
sg15
I16725
sg16
g12
((lp959
g756
ag1
(g8
g3
NtRp960
(dp961
g11
g12
((lp962
I1
aI2
aI6
atRp963
sg15
I43375
sg16
g12
((lp964
g761
ag797
ag256
atRp965
sg18
g12
((lp966
g1
(g8
g3
NtRp967
(dp968
g11
g12
((lp969
I1
aI2
aI13
aI6
atRp970
sg15
I10025
sg16
g12
((lp971
g960
ag1
(g8
g3
NtRp972
(dp973
g11
g12
((lp974
I1
aI2
aI13
atRp975
sg15
I21575
sg16
g12
((lp976
g256
ag1
(g8
g3
NtRp977
(dp978
g11
g12
((lp979
I1
aI13
atRp980
sg15
I23825
sg16
g12
((lp981
g1
(g8
g3
NtRp982
(dp983
g11
g12
((lp984
I13
atRp985
sg15
I24819
sg16
g12
((ltRp986
sg18
g12
((lp987
g1
(g8
g3
NtRp988
(dp989
g11
g12
((lp990
I13
aI6
atRp991
sg15
I11050
sg16
g12
((lp992
g982
ag100
atRp993
sg18
g12
((lp994
g1
(g8
g3
NtRp995
(dp996
g11
g12
((lp997
I1
aI13
aI6
atRp998
sg15
I10975
sg16
g12
((lp999
g761
ag977
ag988
atRp1000
sg18
g12
((lp1001
g967
atRp1002
sbag1
(g8
g3
NtRp1003
(dp1004
g11
g12
((lp1005
I2
aI13
aI6
atRp1006
sg15
I10075
sg16
g12
((lp1007
g1
(g8
g3
NtRp1008
(dp1009
g11
g12
((lp1010
I2
aI13
atRp1011
sg15
I21700
sg16
g12
((lp1012
g9
ag982
atRp1013
sg18
g12
((lp1014
g1
(g8
g3
NtRp1015
(dp1016
g11
g12
((lp1017
I2
aI13
aI5
atRp1018
sg15
I12300
sg16
g12
((lp1019
g1008
ag1
(g8
g3
NtRp1020
(dp1021
g11
g12
((lp1022
I13
aI5
atRp1023
sg15
I13575
sg16
g12
((lp1024
g982
ag89
atRp1025
sg18
g12
((lp1026
g1015
ag1
(g8
g3
NtRp1027
(dp1028
g11
g12
((lp1029
I3
aI5
aI13
atRp1030
sg15
I10250
sg16
g12
((lp1031
g84
ag1020
ag1
(g8
g3
NtRp1032
(dp1033
g11
g12
((lp1034
I3
aI13
atRp1035
sg15
I17850
sg16
g12
((lp1036
g982
ag36
atRp1037
sg18
g12
((lp1038
g1027
ag1
(g8
g3
NtRp1039
(dp1040
g11
g12
((lp1041
I3
aI4
aI13
atRp1042
sg15
I11575
sg16
g12
((lp1043
g1
(g8
g3
NtRp1044
(dp1045
g11
g12
((lp1046
I4
aI13
atRp1047
sg15
I15400
sg16
g12
((lp1048
g982
ag146
atRp1049
sg18
g12
((lp1050
g1039
ag1
(g8
g3
NtRp1051
(dp1052
g11
g12
((lp1053
I1
aI4
aI13
atRp1054
sg15
I15275
sg16
g12
((lp1055
g280
ag977
ag1044
atRp1056
sg18
g12
((lp1057
g1
(g8
g3
NtRp1058
(dp1059
g11
g12
((lp1060
I1
aI3
aI4
aI13
atRp1061
sg15
I10725
sg16
g12
((lp1062
g1039
ag1
(g8
g3
NtRp1063
(dp1064
g11
g12
((lp1065
I1
aI3
aI13
atRp1066
sg15
I17725
sg16
g12
((lp1067
g393
ag1032
ag977
atRp1068
sg18
g12
((lp1069
g1058
ag1
(g8
g3
NtRp1070
(dp1071
g11
g12
((lp1072
I1
aI3
aI5
aI13
atRp1073
sg15
I11900
sg16
g12
((lp1074
g1
(g8
g3
NtRp1075
(dp1076
g11
g12
((lp1077
I1
aI3
aI5
atRp1078
sg15
I42100
sg16
g12
((lp1079
g393
ag339
ag84
atRp1080
sg18
g12
((lp1081
g1
(g8
g3
NtRp1082
(dp1083
g11
g12
((lp1084
I1
aI2
aI3
aI5
atRp1085
sg15
I28100
sg16
g12
((lp1086
g435
ag79
ag671
ag1075
atRp1087
sg18
g12
((lp1088
g1
(g8
g3
NtRp1089
(dp1090
g11
g12
((lp1091
I1
aI10
aI3
aI2
aI5
atRp1092
sg15
I11800
sg16
g12
((lp1093
g1
(g8
g3
NtRp1094
(dp1095
g11
g12
((lp1096
I1
aI2
aI10
aI5
atRp1097
sg15
I15325
sg16
g12
((lp1098
g1
(g8
g3
NtRp1099
(dp1100
g11
g12
((lp1101
I2
aI10
aI5
atRp1102
sg15
I15500
sg16
g12
((lp1103
g117
ag187
ag640
atRp1104
sg18
g12
((lp1105
g1
(g8
g3
NtRp1106
(dp1107
g11
g12
((lp1108
I10
aI3
aI2
aI5
atRp1109
sg15
I10425
sg16
g12
((lp1110
g1099
ag79
ag124
ag1
(g8
g3
NtRp1111
(dp1112
g11
g12
((lp1113
I2
aI3
aI10
atRp1114
sg15
I21775
sg16
g12
((lp1115
g129
ag187
ag72
atRp1116
sg18
g12
((lp1117
g1
(g8
g3
NtRp1118
(dp1119
g11
g12
((lp1120
I2
aI3
aI10
aI6
atRp1121
sg15
I10975
sg16
g12
((lp1122
g1111
ag792
ag1
(g8
g3
NtRp1123
(dp1124
g11
g12
((lp1125
I2
aI10
aI6
atRp1126
sg15
I13875
sg16
g12
((lp1127
g797
ag187
ag106
atRp1128
sg18
g12
((lp1129
g1118
ag1
(g8
g3
NtRp1130
(dp1131
g11
g12
((lp1132
I2
aI3
aI10
aI6
atRp1133
sg15
I10650
sg16
g12
((lp1134
g1111
ag792
ag1123
ag1
(g8
g3
NtRp1135
(dp1136
g11
g12
((lp1137
I10
aI3
aI6
atRp1138
sg15
I11675
sg16
g12
((lp1139
g129
ag785
ag106
atRp1140
sg18
g12
((lp1141
g1118
ag1
(g8
g3
NtRp1142
(dp1143
g11
g12
((lp1144
I1
aI10
aI3
aI6
atRp1145
sg15
I11650
sg16
g12
((lp1146
g1
(g8
g3
NtRp1147
(dp1148
g11
g12
((lp1149
I1
aI10
aI6
atRp1150
sg15
I15600
sg16
g12
((lp1151
g761
ag106
ag1
(g8
g3
NtRp1152
(dp1153
g11
g12
((lp1154
I1
aI10
atRp1155
sg15
I31500
sg16
g12
((lp1156
g227
ag111
atRp1157
sg18
g12
((lp1158
g1
(g8
g3
NtRp1159
(dp1160
g11
g12
((lp1161
I1
aI10
aI9
atRp1162
sg15
I11125
sg16
g12
((lp1163
g175
ag616
ag1152
atRp1164
sg18
g12
((ltRp1165
sbag1
(g8
g3
NtRp1166
(dp1167
g11
g12
((lp1168
I1
aI10
aI3
atRp1169
sg15
I24075
sg16
g12
((lp1170
g129
ag393
ag1152
atRp1171
sg18
g12
((lp1172
g1142
ag1
(g8
g3
NtRp1173
(dp1174
g11
g12
((lp1175
I1
aI10
aI3
aI7
atRp1176
sg15
I10200
sg16
g12
((lp1177
g1
(g8
g3
NtRp1178
(dp1179
g11
g12
((lp1180
I1
aI3
aI7
atRp1181
sg15
I31825
sg16
g12
((lp1182
g393
ag917
ag845
atRp1183
sg18
g12
((lp1184
g1173
ag1
(g8
g3
NtRp1185
(dp1186
g11
g12
((lp1187
I8
aI1
aI3
aI7
atRp1188
sg15
I18475
sg16
g12
((lp1189
g1178
ag912
ag1
(g8
g3
NtRp1190
(dp1191
g11
g12
((lp1192
I8
aI3
aI7
atRp1193
sg15
I11825
sg16
g12
((lp1194
g845
ag1
(g8
g3
NtRp1195
(dp1196
g11
g12
((lp1197
I8
aI3
atRp1198
sg15
I29375
sg16
g12
((lp1199
g216
ag36
atRp1200
sg18
g12
((lp1201
g1
(g8
g3
NtRp1202
(dp1203
g11
g12
((lp1204
I8
aI9
aI3
atRp1205
sg15
I10500
sg16
g12
((lp1206
g1195
ag1
(g8
g3
NtRp1207
(dp1208
g11
g12
((lp1209
I8
aI9
atRp1210
sg15
I13675
sg16
g12
((lp1211
g216
ag157
atRp1212
sg18
g12
((lp1213
g1
(g8
g3
NtRp1214
(dp1215
g11
g12
((lp1216
I8
aI1
aI9
atRp1217
sg15
I13500
sg16
g12
((lp1218
g222
ag616
ag1207
atRp1219
sg18
g12
((lp1220
g1
(g8
g3
NtRp1221
(dp1222
g11
g12
((lp1223
I8
aI1
aI3
aI9
atRp1224
sg15
I10425
sg16
g12
((lp1225
g1214
ag828
ag1202
ag1
(g8
g3
NtRp1226
(dp1227
g11
g12
((lp1228
I8
aI1
aI3
atRp1229
sg15
I29250
sg16
g12
((lp1230
g393
ag222
ag1195
atRp1231
sg18
g12
((lp1232
g1185
ag1
(g8
g3
NtRp1233
(dp1234
g11
g12
((lp1235
I8
aI1
aI3
aI6
atRp1236
sg15
I14775
sg16
g12
((lp1237
g1
(g8
g3
NtRp1238
(dp1239
g11
g12
((lp1240
I8
aI1
aI6
atRp1241
sg15
I18700
sg16
g12
((lp1242
g761
ag1
(g8
g3
NtRp1243
(dp1244
g11
g12
((lp1245
I8
aI6
atRp1246
sg15
I18775
sg16
g12
((lp1247
g216
ag100
atRp1248
sg18
g12
((lp1249
g1
(g8
g3
NtRp1250
(dp1251
g11
g12
((lp1252
I8
aI2
aI6
atRp1253
sg15
I16600
sg16
g12
((lp1254
g797
ag1243
ag1
(g8
g3
NtRp1255
(dp1256
g11
g12
((lp1257
I8
aI2
atRp1258
sg15
I34950
sg16
g12
((lp1259
g9
ag216
atRp1260
sg18
g12
((lp1261
g206
ag1
(g8
g3
NtRp1262
(dp1263
g11
g12
((lp1264
I8
aI2
aI5
atRp1265
sg15
I19175
sg16
g12
((lp1266
g1
(g8
g3
NtRp1267
(dp1268
g11
g12
((lp1269
I8
aI5
atRp1270
sg15
I21500
sg16
g12
((lp1271
g216
ag89
atRp1272
sg18
g12
((lp1273
g1
(g8
g3
NtRp1274
(dp1275
g11
g12
((lp1276
I8
aI3
aI5
atRp1277
sg15
I16350
sg16
g12
((lp1278
g84
ag1195
ag1267
atRp1279
sg18
g12
((lp1280
g1
(g8
g3
NtRp1281
(dp1282
g11
g12
((lp1283
I8
aI3
aI4
aI5
atRp1284
sg15
I10275
sg16
g12
((lp1285
g1274
ag1
(g8
g3
NtRp1286
(dp1287
g11
g12
((lp1288
I3
aI4
aI5
atRp1289
sg15
I28275
sg16
g12
((lp1290
g84
ag1
(g8
g3
NtRp1291
(dp1292
g11
g12
((lp1293
I4
aI5
atRp1294
sg15
I37025
sg16
g12
((lp1295
g146
ag89
atRp1296
sg18
g12
((lp1297
g1
(g8
g3
NtRp1298
(dp1299
g11
g12
((lp1300
I4
aI5
aI7
atRp1301
sg15
I15300
sg16
g12
((lp1302
g510
ag1291
ag1
(g8
g3
NtRp1303
(dp1304
g11
g12
((lp1305
I5
aI7
atRp1306
sg15
I23125
sg16
g12
((lp1307
g89
ag515
atRp1308
sg18
g12
((lp1309
g1
(g8
g3
NtRp1310
(dp1311
g11
g12
((lp1312
I1
aI5
aI7
atRp1313
sg15
I22950
sg16
g12
((lp1314
g1303
ag339
ag917
atRp1315
sg18
g12
((lp1316
g1
(g8
g3
NtRp1317
(dp1318
g11
g12
((lp1319
I1
aI2
aI5
aI7
atRp1320
sg15
I10125
sg16
g12
((lp1321
g1310
ag1
(g8
g3
NtRp1322
(dp1323
g11
g12
((lp1324
I2
aI5
aI7
atRp1325
sg15
I20275
sg16
g12
((lp1326
g1303
ag640
ag869
atRp1327
sg18
g12
((lp1328
g1317
ag1
(g8
g3
NtRp1329
(dp1330
g11
g12
((lp1331
I2
aI4
aI5
aI7
atRp1332
sg15
I10425
sg16
g12
((lp1333
g1298
ag1322
ag1
(g8
g3
NtRp1334
(dp1335
g11
g12
((lp1336
I2
aI4
aI5
atRp1337
sg15
I32500
sg16
g12
((lp1338
g199
ag1291
ag640
atRp1339
sg18
g12
((lp1340
g1
(g8
g3
NtRp1341
(dp1342
g11
g12
((lp1343
I2
aI3
aI4
aI5
atRp1344
sg15
I20425
sg16
g12
((lp1345
g1334
ag79
ag1
(g8
g3
NtRp1346
(dp1347
g11
g12
((lp1348
I2
aI3
aI4
atRp1349
sg15
I44625
sg16
g12
((lp1350
g199
ag141
ag72
atRp1351
sg18
g12
((lp1352
g1
(g8
g3
NtRp1353
(dp1354
g11
g12
((lp1355
I2
aI3
aI4
aI14
atRp1356
sg15
I10225
sg16
g12
((lp1357
g539
ag1346
ag551
ag1
(g8
g3
NtRp1358
(dp1359
g11
g12
((lp1360
I2
aI4
aI14
atRp1361
sg15
I13575
sg16
g12
((lp1362
g532
ag556
ag199
atRp1363
sg18
g12
((lp1364
g1353
ag1
(g8
g3
NtRp1365
(dp1366
g11
g12
((lp1367
I1
aI2
aI4
aI14
atRp1368
sg15
I15175
sg16
g12
((lp1369
g563
ag493
ag1358
ag1
(g8
g3
NtRp1370
(dp1371
g11
g12
((lp1372
I1
aI4
aI14
atRp1373
sg15
I15275
sg16
g12
((lp1374
g280
ag568
ag532
atRp1375
sg18
g12
((lp1376
g1365
ag594
atRp1377
sbatRp1378
sg18
g12
((lp1379
g589
atRp1380
sbatRp1381
sbatRp1382
sg18
g12
((lp1383
g589
atRp1384
sbag1
(g8
g3
NtRp1385
(dp1386
g11
g12
((lp1387
I2
aI3
aI4
aI6
atRp1388
sg15
I11900
sg16
g12
((lp1389
g780
ag1346
ag1
(g8
g3
NtRp1390
(dp1391
g11
g12
((lp1392
I2
aI4
aI6
atRp1393
sg15
I27600
sg16
g12
((lp1394
g773
ag797
ag199
atRp1395
sg18
g12
((lp1396
g1
(g8
g3
NtRp1397
(dp1398
g11
g12
((lp1399
I1
aI2
aI4
aI6
atRp1400
sg15
I10600
sg16
g12
((lp1401
g960
ag768
ag1390
ag493
atRp1402
sg18
g12
((lp1403
g1
(g8
g3
NtRp1404
(dp1405
g11
g12
((lp1406
I1
aI2
aI3
aI4
aI6
atRp1407
sg15
I20325
sg16
g12
((lp1408
g1397
ag1
(g8
g3
NtRp1409
(dp1410
g11
g12
((lp1411
I1
aI2
aI3
aI4
atRp1412
sg15
I32075
sg16
g12
((lp1413
g493
ag1346
ag599
ag435
atRp1414
sg18
g12
((lp1415
g1
(g8
g3
NtRp1416
(dp1417
g11
g12
((lp1418
I1
aI2
aI3
aI4
aI13
atRp1419
sg15
I14025
sg16
g12
((lp1420
g1058
ag1
(g8
g3
NtRp1421
(dp1422
g11
g12
((lp1423
I2
aI3
aI4
aI13
atRp1424
sg15
I14125
sg16
g12
((lp1425
g1039
ag1346
ag1
(g8
g3
NtRp1426
(dp1427
g11
g12
((lp1428
I2
aI3
aI13
atRp1429
sg15
I16050
sg16
g12
((lp1430
g1008
ag1032
ag72
atRp1431
sg18
g12
((lp1432
g1421
ag1
(g8
g3
NtRp1433
(dp1434
g11
g12
((lp1435
I1
aI2
aI3
aI13
atRp1436
sg15
I17800
sg16
g12
((lp1437
g435
ag1063
ag1426
ag972
atRp1438
sg18
g12
((lp1439
g1416
atRp1440
sbatRp1441
sbag1
(g8
g3
NtRp1442
(dp1443
g11
g12
((lp1444
I2
aI4
aI13
atRp1445
sg15
I13800
sg16
g12
((lp1446
g1044
ag199
ag1008
atRp1447
sg18
g12
((lp1448
g1421
ag1
(g8
g3
NtRp1449
(dp1450
g11
g12
((lp1451
I1
aI2
aI4
aI13
atRp1452
sg15
I10175
sg16
g12
((lp1453
g493
ag972
ag1051
ag1442
atRp1454
sg18
g12
((lp1455
g1416
atRp1456
sbatRp1457
sbatRp1458
sg18
g12
((lp1459
g1416
atRp1460
sbag1409
ag1433
ag1449
atRp1461
sg18
g12
((ltRp1462
sbag1
(g8
g3
NtRp1463
(dp1464
g11
g12
((lp1465
I1
aI2
aI3
aI4
aI9
atRp1466
sg15
I15125
sg16
g12
((lp1467
g1
(g8
g3
NtRp1468
(dp1469
g11
g12
((lp1470
I1
aI2
aI3
aI9
atRp1471
sg15
I11175
sg16
g12
((lp1472
g1
(g8
g3
NtRp1473
(dp1474
g11
g12
((lp1475
I9
aI2
aI3
atRp1476
sg15
I23900
sg16
g12
((lp1477
g163
ag72
ag833
atRp1478
sg18
g12
((lp1479
g1468
ag1
(g8
g3
NtRp1480
(dp1481
g11
g12
((lp1482
I9
aI2
aI3
aI4
atRp1483
sg15
I11075
sg16
g12
((lp1484
g1473
ag1346
ag1
(g8
g3
NtRp1485
(dp1486
g11
g12
((lp1487
I9
aI3
aI4
atRp1488
sg15
I17125
sg16
g12
((lp1489
g833
ag141
ag152
atRp1490
sg18
g12
((lp1491
g1
(g8
g3
NtRp1492
(dp1493
g11
g12
((lp1494
I1
aI3
aI4
aI9
atRp1495
sg15
I11025
sg16
g12
((lp1496
g611
ag828
ag599
ag1485
atRp1497
sg18
g12
((lp1498
g1463
ag1
(g8
g3
NtRp1499
(dp1500
g11
g12
((lp1501
I1
aI2
aI3
aI4
aI9
atRp1502
sg15
I12675
sg16
g12
((lp1503
g1468
ag1480
ag1409
ag1492
ag1
(g8
g3
NtRp1504
(dp1505
g11
g12
((lp1506
I1
aI2
aI4
aI9
atRp1507
sg15
I32325
sg16
g12
((lp1508
g1
(g8
g3
NtRp1509
(dp1510
g11
g12
((lp1511
I9
aI2
aI4
atRp1512
sg15
I19850
sg16
g12
((lp1513
g199
ag152
ag163
atRp1514
sg18
g12
((lp1515
g1
(g8
g3
NtRp1516
(dp1517
g11
g12
((lp1518
I1
aI2
aI4
aI9
atRp1519
sg15
I10025
sg16
g12
((lp1520
g1509
ag611
ag1
(g8
g3
NtRp1521
(dp1522
g11
g12
((lp1523
I1
aI2
aI9
atRp1524
sg15
I30925
sg16
g12
((lp1525
g256
ag616
ag163
atRp1526
sg18
g12
((lp1527
g1
(g8
g3
NtRp1528
(dp1529
g11
g12
((lp1530
I1
aI2
aI10
aI9
atRp1531
sg15
I15325
sg16
g12
((lp1532
g170
ag1
(g8
g3
NtRp1533
(dp1534
g11
g12
((lp1535
I1
aI2
aI10
atRp1536
sg15
I28075
sg16
g12
((lp1537
g256
ag187
ag1152
atRp1538
sg18
g12
((lp1539
g1
(g8
g3
NtRp1540
(dp1541
g11
g12
((lp1542
I1
aI2
aI10
aI7
atRp1543
sg15
I17025
sg16
g12
((lp1544
g864
ag1
(g8
g3
NtRp1545
(dp1546
g11
g12
((lp1547
I1
aI10
aI7
atRp1548
sg15
I13700
sg16
g12
((lp1549
g1152
ag917
ag857
atRp1550
sg18
g12
((lp1551
g1173
ag1
(g8
g3
NtRp1552
(dp1553
g11
g12
((lp1554
I1
aI2
aI10
aI7
atRp1555
sg15
I12300
sg16
g12
((lp1556
g864
ag1545
ag1
(g8
g3
NtRp1557
(dp1558
g11
g12
((lp1559
I1
aI2
aI7
atRp1560
sg15
I37300
sg16
g12
((lp1561
g256
ag917
ag869
atRp1562
sg18
g12
((lp1563
g1540
ag1
(g8
g3
NtRp1564
(dp1565
g11
g12
((lp1566
I1
aI2
aI7
aI9
atRp1567
sg15
I10125
sg16
g12
((lp1568
g1
(g8
g3
NtRp1569
(dp1570
g11
g12
((lp1571
I9
aI2
aI7
atRp1572
sg15
I12975
sg16
g12
((lp1573
g1
(g8
g3
NtRp1574
(dp1575
g11
g12
((lp1576
I9
aI7
atRp1577
sg15
I14500
sg16
g12
((lp1578
g157
ag515
atRp1579
sg18
g12
((lp1580
g1569
ag1
(g8
g3
NtRp1581
(dp1582
g11
g12
((lp1583
I1
aI9
aI7
atRp1584
sg15
I14350
sg16
g12
((lp1585
g1574
ag917
ag616
atRp1586
sg18
g12
((lp1587
g1564
ag1
(g8
g3
NtRp1588
(dp1589
g11
g12
((lp1590
I1
aI2
aI7
aI9
atRp1591
sg15
I12825
sg16
g12
((lp1592
g1569
ag1581
ag1521
ag1557
atRp1593
sg18
g12
((ltRp1594
sbag1
(g8
g3
NtRp1595
(dp1596
g11
g12
((lp1597
I1
aI3
aI9
aI7
atRp1598
sg15
I10550
sg16
g12
((lp1599
g1581
ag828
ag1178
ag840
atRp1600
sg18
g12
((ltRp1601
sbag1
(g8
g3
NtRp1602
(dp1603
g11
g12
((lp1604
I1
aI2
aI7
aI9
atRp1605
sg15
I11000
sg16
g12
((lp1606
g1569
ag1581
ag1521
ag1557
atRp1607
sg18
g12
((ltRp1608
sbag1
(g8
g3
NtRp1609
(dp1610
g11
g12
((lp1611
I1
aI3
aI9
aI7
atRp1612
sg15
I10175
sg16
g12
((lp1613
g1581
ag828
ag1178
ag840
atRp1614
sg18
g12
((ltRp1615
sbag1
(g8
g3
NtRp1616
(dp1617
g11
g12
((lp1618
I1
aI3
aI9
aI7
atRp1619
sg15
I17025
sg16
g12
((lp1620
g1581
ag828
ag1178
ag840
atRp1621
sg18
g12
((ltRp1622
sbatRp1623
sbag840
ag1
(g8
g3
NtRp1624
(dp1625
g11
g12
((lp1626
I1
aI9
aI7
atRp1627
sg15
I14350
sg16
g12
((lp1628
g1574
ag917
ag616
atRp1629
sg18
g12
((ltRp1630
sbag1
(g8
g3
NtRp1631
(dp1632
g11
g12
((lp1633
I1
aI9
aI7
atRp1634
sg15
I14350
sg16
g12
((lp1635
g1574
ag917
ag616
atRp1636
sg18
g12
((ltRp1637
sbatRp1638
sbag869
ag163
atRp1639
sg18
g12
((lp1640
g1602
ag1588
ag1564
atRp1641
sbag1581
ag1521
ag1557
atRp1642
sg18
g12
((ltRp1643
sbag500
ag943
ag1588
ag1552
ag1317
ag1602
ag1
(g8
g3
NtRp1644
(dp1645
g11
g12
((lp1646
I1
aI2
aI6
aI7
atRp1647
sg15
I10650
sg16
g12
((lp1648
g960
ag1
(g8
g3
NtRp1649
(dp1650
g11
g12
((lp1651
I2
aI6
aI7
atRp1652
sg15
I18550
sg16
g12
((lp1653
g797
ag869
ag1
(g8
g3
NtRp1654
(dp1655
g11
g12
((lp1656
I6
aI7
atRp1657
sg15
I21325
sg16
g12
((lp1658
g100
ag515
atRp1659
sg18
g12
((lp1660
g1
(g8
g3
NtRp1661
(dp1662
g11
g12
((lp1663
I5
aI6
aI7
atRp1664
sg15
I11325
sg16
g12
((lp1665
g95
ag1654
ag1303
atRp1666
sg18
g12
((lp1667
g1
(g8
g3
NtRp1668
(dp1669
g11
g12
((lp1670
I1
aI5
aI6
aI7
atRp1671
sg15
I23375
sg16
g12
((lp1672
g1661
ag1310
ag1
(g8
g3
NtRp1673
(dp1674
g11
g12
((lp1675
I1
aI6
aI7
atRp1676
sg15
I21225
sg16
g12
((lp1677
g761
ag917
ag1654
atRp1678
sg18
g12
((lp1679
g1
(g8
g3
NtRp1680
(dp1681
g11
g12
((lp1682
I1
aI4
aI6
aI7
atRp1683
sg15
I15300
sg16
g12
((lp1684
g768
ag505
ag1673
ag1
(g8
g3
NtRp1685
(dp1686
g11
g12
((lp1687
I4
aI6
aI7
atRp1688
sg15
I14025
sg16
g12
((lp1689
g510
ag1654
ag773
atRp1690
sg18
g12
((lp1691
g1680
ag1
(g8
g3
NtRp1692
(dp1693
g11
g12
((lp1694
I3
aI4
aI6
aI7
atRp1695
sg15
I12825
sg16
g12
((lp1696
g1
(g8
g3
NtRp1697
(dp1698
g11
g12
((lp1699
I3
aI6
aI7
atRp1700
sg15
I15650
sg16
g12
((lp1701
g845
ag785
ag1654
atRp1702
sg18
g12
((lp1703
g1
(g8
g3
NtRp1704
(dp1705
g11
g12
((lp1706
I1
aI3
aI6
aI7
atRp1707
sg15
I15200
sg16
g12
((lp1708
g1697
ag1673
ag1
(g8
g3
NtRp1709
(dp1710
g11
g12
((lp1711
I1
aI3
aI6
atRp1712
sg15
I36250
sg16
g12
((lp1713
g761
ag785
ag393
atRp1714
sg18
g12
((lp1715
g823
ag1
(g8
g3
NtRp1716
(dp1717
g11
g12
((lp1718
I1
aI3
aI6
aI9
atRp1719
sg15
I12300
sg16
g12
((lp1720
g816
ag828
ag1709
ag1
(g8
g3
NtRp1721
(dp1722
g11
g12
((lp1723
I9
aI3
aI6
atRp1724
sg15
I12375
sg16
g12
((lp1725
g833
ag785
ag809
atRp1726
sg18
g12
((lp1727
g823
ag1716
ag1
(g8
g3
NtRp1728
(dp1729
g11
g12
((lp1730
I9
aI2
aI3
aI6
atRp1731
sg15
I11025
sg16
g12
((lp1732
g1473
ag792
ag1721
ag804
atRp1733
sg18
g12
((lp1734
g1
(g8
g3
NtRp1735
(dp1736
g11
g12
((lp1737
I1
aI2
aI3
aI6
aI9
atRp1738
sg15
I10975
sg16
g12
((lp1739
g1
(g8
g3
NtRp1740
(dp1741
g11
g12
((lp1742
I1
aI2
aI6
aI9
atRp1743
sg15
I11925
sg16
g12
((lp1744
g960
ag816
ag1521
ag804
atRp1745
sg18
g12
((lp1746
g1735
ag1
(g8
g3
NtRp1747
(dp1748
g11
g12
((lp1749
I1
aI2
aI3
aI6
aI9
atRp1750
sg15
I15200
sg16
g12
((lp1751
g1740
ag1728
ag1716
ag1
(g8
g3
NtRp1752
(dp1753
g11
g12
((lp1754
I1
aI2
aI3
aI6
atRp1755
sg15
I11275
sg16
g12
((lp1756
g960
ag792
ag1709
ag435
atRp1757
sg18
g12
((lp1758
g1735
ag1
(g8
g3
NtRp1759
(dp1760
g11
g12
((lp1761
I1
aI2
aI3
aI10
aI6
atRp1762
sg15
I10125
sg16
g12
((lp1763
g1118
ag1
(g8
g3
NtRp1764
(dp1765
g11
g12
((lp1766
I1
aI2
aI10
aI6
atRp1767
sg15
I13825
sg16
g12
((lp1768
g960
ag1147
ag1123
ag1533
atRp1769
sg18
g12
((lp1770
g1759
ag1
(g8
g3
NtRp1771
(dp1772
g11
g12
((lp1773
I1
aI2
aI3
aI10
aI6
atRp1774
sg15
I11800
sg16
g12
((lp1775
g1118
ag1764
ag1
(g8
g3
NtRp1776
(dp1777
g11
g12
((lp1778
I1
aI2
aI3
aI10
atRp1779
sg15
I21600
sg16
g12
((lp1780
g435
ag1533
ag1166
ag1111
atRp1781
sg18
g12
((lp1782
g1
(g8
g3
NtRp1783
(dp1784
g11
g12
((lp1785
I1
aI2
aI3
aI4
aI10
atRp1786
sg15
I15125
sg16
g12
((lp1787
g1
(g8
g3
NtRp1788
(dp1789
g11
g12
((lp1790
I2
aI3
aI4
aI10
atRp1791
sg15
I14125
sg16
g12
((lp1792
g1111
ag1346
ag1
(g8
g3
NtRp1793
(dp1794
g11
g12
((lp1795
I2
aI4
aI10
atRp1796
sg15
I18475
sg16
g12
((lp1797
g199
ag187
ag1
(g8
g3
NtRp1798
(dp1799
g11
g12
((lp1800
I10
aI4
atRp1801
sg15
I20875
sg16
g12
((lp1802
g146
ag111
atRp1803
sg18
g12
((lp1804
g136
ag1
(g8
g3
NtRp1805
(dp1806
g11
g12
((lp1807
I10
aI4
aI5
atRp1808
sg15
I11725
sg16
g12
((lp1809
g117
ag1291
ag1798
atRp1810
sg18
g12
((lp1811
g1
(g8
g3
NtRp1812
(dp1813
g11
g12
((lp1814
I2
aI4
aI10
aI5
atRp1815
sg15
I10050
sg16
g12
((lp1816
g1099
ag1805
ag1334
ag1793
atRp1817
sg18
g12
((ltRp1818
sbag1
(g8
g3
NtRp1819
(dp1820
g11
g12
((lp1821
I2
aI4
aI10
aI5
atRp1822
sg15
I10250
sg16
g12
((lp1823
g1099
ag1805
ag1334
ag1793
atRp1824
sg18
g12
((ltRp1825
sbag1
(g8
g3
NtRp1826
(dp1827
g11
g12
((lp1828
I1
aI10
aI4
aI5
atRp1829
sg15
I18325
sg16
g12
((lp1830
g1
(g8
g3
NtRp1831
(dp1832
g11
g12
((lp1833
I1
aI10
aI4
atRp1834
sg15
I20725
sg16
g12
((lp1835
g280
ag1798
ag1152
atRp1836
sg18
g12
((lp1837
g1
(g8
g3
NtRp1838
(dp1839
g11
g12
((lp1840
I1
aI10
aI4
aI6
atRp1841
sg15
I12100
sg16
g12
((lp1842
g1831
ag768
ag1
(g8
g3
NtRp1843
(dp1844
g11
g12
((lp1845
I10
aI4
aI6
atRp1846
sg15
I10275
sg16
g12
((lp1847
g773
ag1798
ag106
atRp1848
sg18
g12
((lp1849
g1838
atRp1850
sbag1147
atRp1851
sg18
g12
((ltRp1852
sbag1
(g8
g3
NtRp1853
(dp1854
g11
g12
((lp1855
I1
aI2
aI4
aI10
atRp1856
sg15
I10200
sg16
g12
((lp1857
g493
ag1793
ag1831
ag1533
atRp1858
sg18
g12
((lp1859
g1
(g8
g3
NtRp1860
(dp1861
g11
g12
((lp1862
I1
aI2
aI3
aI4
aI10
atRp1863
sg15
I12650
sg16
g12
((lp1864
g1788
ag1409
ag1776
ag1853
ag1
(g8
g3
NtRp1865
(dp1866
g11
g12
((lp1867
I1
aI10
aI3
aI4
atRp1868
sg15
I15775
sg16
g12
((lp1869
g1831
ag136
ag1166
ag599
atRp1870
sg18
g12
((lp1871
g1860
ag1783
atRp1872
sbatRp1873
sg18
g12
((ltRp1874
sbag1783
atRp1875
sbag1865
ag1826
ag1
(g8
g3
NtRp1876
(dp1877
g11
g12
((lp1878
I1
aI2
aI4
aI10
atRp1879
sg15
I12300
sg16
g12
((lp1880
g493
ag1793
ag1831
ag1533
atRp1881
sg18
g12
((ltRp1882
sbatRp1883
sbag1
(g8
g3
NtRp1884
(dp1885
g11
g12
((lp1886
I1
aI4
aI5
atRp1887
sg15
I36850
sg16
g12
((lp1888
g280
ag1291
ag339
atRp1889
sg18
g12
((lp1890
g1
(g8
g3
NtRp1891
(dp1892
g11
g12
((lp1893
I1
aI4
aI5
aI9
atRp1894
sg15
I15550
sg16
g12
((lp1895
g611
ag1884
ag1
(g8
g3
NtRp1896
(dp1897
g11
g12
((lp1898
I9
aI4
aI5
atRp1899
sg15
I12225
sg16
g12
((lp1900
g628
ag1291
ag152
atRp1901
sg18
g12
((lp1902
g1
(g8
g3
NtRp1903
(dp1904
g11
g12
((lp1905
I1
aI4
aI5
aI9
atRp1906
sg15
I15175
sg16
g12
((lp1907
g611
ag1884
ag1896
ag1
(g8
g3
NtRp1908
(dp1909
g11
g12
((lp1910
I1
aI5
aI9
atRp1911
sg15
I18975
sg16
g12
((lp1912
g628
ag339
ag616
atRp1913
sg18
g12
((lp1914
g1891
ag1
(g8
g3
NtRp1915
(dp1916
g11
g12
((lp1917
I1
aI3
aI5
aI9
atRp1918
sg15
I10550
sg16
g12
((lp1919
g1
(g8
g3
NtRp1920
(dp1921
g11
g12
((lp1922
I9
aI3
aI5
atRp1923
sg15
I14575
sg16
g12
((lp1924
g84
ag833
ag628
atRp1925
sg18
g12
((lp1926
g1
(g8
g3
NtRp1927
(dp1928
g11
g12
((lp1929
I9
aI2
aI3
aI5
atRp1930
sg15
I23775
sg16
g12
((lp1931
g1920
ag79
ag1473
ag635
atRp1932
sg18
g12
((lp1933
g1
(g8
g3
NtRp1934
(dp1935
g11
g12
((lp1936
I1
aI2
aI3
aI5
aI9
atRp1937
sg15
I13125
sg16
g12
((lp1938
g1468
ag1927
ag1082
ag1
(g8
g3
NtRp1939
(dp1940
g11
g12
((lp1941
I1
aI3
aI5
aI9
atRp1942
sg15
I14500
sg16
g12
((lp1943
g1920
ag828
ag1075
ag1908
atRp1944
sg18
g12
((lp1945
g1934
ag1
(g8
g3
NtRp1946
(dp1947
g11
g12
((lp1948
I1
aI2
aI3
aI5
aI9
atRp1949
sg15
I10150
sg16
g12
((lp1950
g1468
ag1927
ag1082
ag1939
ag1
(g8
g3
NtRp1951
(dp1952
g11
g12
((lp1953
I1
aI2
aI5
aI9
atRp1954
sg15
I17025
sg16
g12
((lp1955
g1908
ag635
ag1521
ag671
atRp1956
sg18
g12
((lp1957
g1
(g8
g3
NtRp1958
(dp1959
g11
g12
((lp1960
I1
aI2
aI4
aI5
aI9
atRp1961
sg15
I11300
sg16
g12
((lp1962
g1903
ag1504
ag1951
ag1
(g8
g3
NtRp1963
(dp1964
g11
g12
((lp1965
I9
aI2
aI4
aI5
atRp1966
sg15
I19700
sg16
g12
((lp1967
g635
ag1896
ag1334
ag1509
atRp1968
sg18
g12
((lp1969
g1958
ag1
(g8
g3
NtRp1970
(dp1971
g11
g12
((lp1972
I1
aI2
aI4
aI5
aI9
atRp1973
sg15
I10850
sg16
g12
((lp1974
g1903
ag1504
ag1951
ag1963
ag1
(g8
g3
NtRp1975
(dp1976
g11
g12
((lp1977
I1
aI2
aI4
aI5
atRp1978
sg15
I24375
sg16
g12
((lp1979
g493
ag1884
ag671
ag1334
atRp1980
sg18
g12
((lp1981
g1958
ag1970
ag1
(g8
g3
NtRp1982
(dp1983
g11
g12
((lp1984
I1
aI2
aI4
aI5
aI7
atRp1985
sg15
I13175
sg16
g12
((lp1986
g1
(g8
g3
NtRp1987
(dp1988
g11
g12
((lp1989
I1
aI4
aI5
aI7
atRp1990
sg15
I14500
sg16
g12
((lp1991
g1298
ag505
ag1884
ag1310
atRp1992
sg18
g12
((lp1993
g1982
ag1
(g8
g3
NtRp1994
(dp1995
g11
g12
((lp1996
I1
aI3
aI4
aI5
aI7
atRp1997
sg15
I14025
sg16
g12
((lp1998
g1
(g8
g3
NtRp1999
(dp2000
g11
g12
((lp2001
I3
aI4
aI5
aI7
atRp2002
sg15
I13025
sg16
g12
((lp2003
g1298
ag1286
ag1
(g8
g3
NtRp2004
(dp2005
g11
g12
((lp2006
I3
aI4
aI7
atRp2007
sg15
I21150
sg16
g12
((lp2008
g510
ag141
ag845
atRp2009
sg18
g12
((lp2010
g1999
ag1
(g8
g3
NtRp2011
(dp2012
g11
g12
((lp2013
I1
aI3
aI4
aI7
atRp2014
sg15
I12225
sg16
g12
((lp2015
g1178
ag505
ag599
ag2004
atRp2016
sg18
g12
((lp2017
g1
(g8
g3
NtRp2018
(dp2019
g11
g12
((lp2020
I1
aI3
aI4
aI6
aI7
atRp2021
sg15
I10400
sg16
g12
((lp2022
g1680
ag1
(g8
g3
NtRp2023
(dp2024
g11
g12
((lp2025
I1
aI3
aI4
aI6
atRp2026
sg15
I17025
sg16
g12
((lp2027
g780
ag768
ag599
ag1709
atRp2028
sg18
g12
((lp2029
g1404
ag1
(g8
g3
NtRp2030
(dp2031
g11
g12
((lp2032
I1
aI3
aI4
aI5
aI6
atRp2033
sg15
I10650
sg16
g12
((lp2034
g1
(g8
g3
NtRp2035
(dp2036
g11
g12
((lp2037
I3
aI4
aI5
aI6
atRp2038
sg15
I11475
sg16
g12
((lp2039
g780
ag1286
ag1
(g8
g3
NtRp2040
(dp2041
g11
g12
((lp2042
I4
aI5
aI6
atRp2043
sg15
I17500
sg16
g12
((lp2044
g773
ag1291
ag95
atRp2045
sg18
g12
((lp2046
g1
(g8
g3
NtRp2047
(dp2048
g11
g12
((lp2049
I1
aI4
aI5
aI6
atRp2050
sg15
I12100
sg16
g12
((lp2051
g768
ag1884
ag2040
ag1
(g8
g3
NtRp2052
(dp2053
g11
g12
((lp2054
I1
aI5
aI6
atRp2055
sg15
I27025
sg16
g12
((lp2056
g761
ag339
ag95
atRp2057
sg18
g12
((lp2058
g2047
ag1
(g8
g3
NtRp2059
(dp2060
g11
g12
((lp2061
I1
aI2
aI5
aI6
atRp2062
sg15
I20125
sg16
g12
((lp2063
g960
ag1
(g8
g3
NtRp2064
(dp2065
g11
g12
((lp2066
I2
aI5
aI6
atRp2067
sg15
I23650
sg16
g12
((lp2068
g95
ag640
ag797
atRp2069
sg18
g12
((lp2070
g2059
ag1
(g8
g3
NtRp2071
(dp2072
g11
g12
((lp2073
I2
aI3
aI5
aI6
atRp2074
sg15
I12825
sg16
g12
((lp2075
g792
ag79
ag1
(g8
g3
NtRp2076
(dp2077
g11
g12
((lp2078
I3
aI5
aI6
atRp2079
sg15
I19825
sg16
g12
((lp2080
g95
ag785
ag84
atRp2081
sg18
g12
((lp2082
g2035
ag1
(g8
g3
NtRp2083
(dp2084
g11
g12
((lp2085
I1
aI3
aI5
aI6
atRp2086
sg15
I19750
sg16
g12
((lp2087
g2052
ag1075
ag1709
ag2076
atRp2088
sg18
g12
((lp2089
g2030
ag1
(g8
g3
NtRp2090
(dp2091
g11
g12
((lp2092
I1
aI2
aI3
aI5
aI6
atRp2093
sg15
I10175
sg16
g12
((lp2094
g2059
ag1082
ag2083
ag1752
ag2071
atRp2095
sg18
g12
((lp2096
g1
(g8
g3
NtRp2097
(dp2098
g11
g12
((lp2099
I1
aI2
aI3
aI4
aI5
aI6
atRp2100
sg15
I10875
sg16
g12
((lp2101
g1
(g8
g3
NtRp2102
(dp2103
g11
g12
((lp2104
I1
aI2
aI3
aI4
aI5
atRp2105
sg15
I24750
sg16
g12
((lp2106
g1
(g8
g3
NtRp2107
(dp2108
g11
g12
((lp2109
I1
aI3
aI4
aI5
atRp2110
sg15
I20975
sg16
g12
((lp2111
g1075
ag1884
ag599
ag1286
atRp2112
sg18
g12
((lp2113
g1
(g8
g3
NtRp2114
(dp2115
g11
g12
((lp2116
I8
aI1
aI3
aI4
aI5
atRp2117
sg15
I10600
sg16
g12
((lp2118
g1281
ag1
(g8
g3
NtRp2119
(dp2120
g11
g12
((lp2121
I8
aI1
aI3
aI5
atRp2122
sg15
I11750
sg16
g12
((lp2123
g1226
ag1
(g8
g3
NtRp2124
(dp2125
g11
g12
((lp2126
I8
aI1
aI5
atRp2127
sg15
I21375
sg16
g12
((lp2128
g1267
ag339
ag222
atRp2129
sg18
g12
((lp2130
g1
(g8
g3
NtRp2131
(dp2132
g11
g12
((lp2133
I8
aI1
aI2
aI5
atRp2134
sg15
I19050
sg16
g12
((lp2135
g1
(g8
g3
NtRp2136
(dp2137
g11
g12
((lp2138
I8
aI1
aI2
atRp2139
sg15
I34700
sg16
g12
((lp2140
g256
ag1255
ag222
atRp2141
sg18
g12
((lp2142
g1
(g8
g3
NtRp2143
(dp2144
g11
g12
((lp2145
I8
aI1
aI2
aI10
atRp2146
sg15
I11000
sg16
g12
((lp2147
g1
(g8
g3
NtRp2148
(dp2149
g11
g12
((lp2150
I8
aI1
aI10
atRp2151
sg15
I12400
sg16
g12
((lp2152
g222
ag1
(g8
g3
NtRp2153
(dp2154
g11
g12
((lp2155
I8
aI10
atRp2156
sg15
I12525
sg16
g12
((lp2157
g216
ag111
atRp2158
sg18
g12
((lp2159
g2148
ag1
(g8
g3
NtRp2160
(dp2161
g11
g12
((lp2162
I8
aI2
aI10
atRp2163
sg15
I11150
sg16
g12
((lp2164
g2153
ag187
ag1255
atRp2165
sg18
g12
((lp2166
g1
(g8
g3
NtRp2167
(dp2168
g11
g12
((lp2169
I8
aI1
aI2
aI10
atRp2170
sg15
I10050
sg16
g12
((lp2171
g2148
ag1533
ag2136
ag2160
atRp2172
sg18
g12
((ltRp2173
sbag2143
atRp2174
sbag1
(g8
g3
NtRp2175
(dp2176
g11
g12
((lp2177
I8
aI2
aI10
atRp2178
sg15
I11150
sg16
g12
((lp2179
g2153
ag187
ag1255
atRp2180
sg18
g12
((ltRp2181
sbatRp2182
sbag1152
atRp2183
sg18
g12
((lp2184
g2167
ag2143
atRp2185
sbag1533
ag2136
ag2160
atRp2186
sg18
g12
((ltRp2187
sbag1
(g8
g3
NtRp2188
(dp2189
g11
g12
((lp2190
I8
aI1
aI2
aI9
atRp2191
sg15
I11925
sg16
g12
((lp2192
g1214
ag2136
ag1521
ag1
(g8
g3
NtRp2193
(dp2194
g11
g12
((lp2195
I8
aI9
aI2
atRp2196
sg15
I12100
sg16
g12
((lp2197
g163
ag1255
ag1207
atRp2198
sg18
g12
((lp2199
g2188
ag1
(g8
g3
NtRp2200
(dp2201
g11
g12
((lp2202
I8
aI1
aI2
aI9
atRp2203
sg15
I19700
sg16
g12
((lp2204
g1214
ag2136
ag1521
ag2193
atRp2205
sg18
g12
((ltRp2206
sbatRp2207
sbatRp2208
sg18
g12
((ltRp2209
sbag1
(g8
g3
NtRp2210
(dp2211
g11
g12
((lp2212
I8
aI1
aI2
aI7
atRp2213
sg15
I13875
sg16
g12
((lp2214
g888
ag2136
ag1557
ag912
atRp2215
sg18
g12
((lp2216
g1
(g8
g3
NtRp2217
(dp2218
g11
g12
((lp2219
I8
aI1
aI2
aI3
aI7
atRp2220
sg15
I10550
sg16
g12
((lp2221
g883
ag1
(g8
g3
NtRp2222
(dp2223
g11
g12
((lp2224
I1
aI2
aI3
aI7
atRp2225
sg15
I28175
sg16
g12
((lp2226
g435
ag876
ag1557
ag1178
atRp2227
sg18
g12
((lp2228
g1
(g8
g3
NtRp2229
(dp2230
g11
g12
((lp2231
I1
aI2
aI3
aI6
aI7
atRp2232
sg15
I10925
sg16
g12
((lp2233
g2222
ag1644
ag1
(g8
g3
NtRp2234
(dp2235
g11
g12
((lp2236
I2
aI3
aI6
aI7
atRp2237
sg15
I13550
sg16
g12
((lp2238
g1697
ag876
ag1649
ag792
atRp2239
sg18
g12
((lp2240
g2229
atRp2241
sbag1752
ag1704
atRp2242
sg18
g12
((ltRp2243
sbag2217
ag1
(g8
g3
NtRp2244
(dp2245
g11
g12
((lp2246
I1
aI2
aI3
aI4
aI7
atRp2247
sg15
I18200
sg16
g12
((lp2248
g500
ag1409
ag1
(g8
g3
NtRp2249
(dp2250
g11
g12
((lp2251
I2
aI3
aI4
aI7
atRp2252
sg15
I10425
sg16
g12
((lp2253
g1
(g8
g3
NtRp2254
(dp2255
g11
g12
((lp2256
I2
aI4
aI7
atRp2257
sg15
I24575
sg16
g12
((lp2258
g510
ag869
ag199
atRp2259
sg18
g12
((lp2260
g500
ag1329
ag2249
ag1
(g8
g3
NtRp2261
(dp2262
g11
g12
((lp2263
I2
aI4
aI6
aI7
atRp2264
sg15
I10375
sg16
g12
((lp2265
g2254
ag1685
ag1390
ag1649
atRp2266
sg18
g12
((lp2267
g1
(g8
g3
NtRp2268
(dp2269
g11
g12
((lp2270
I1
aI2
aI4
aI6
aI7
atRp2271
sg15
I11925
sg16
g12
((lp2272
g1397
ag2261
ag1680
ag1644
ag500
atRp2273
sg18
g12
((ltRp2274
sbatRp2275
sbatRp2276
sbag1346
ag2004
ag876
atRp2277
sg18
g12
((lp2278
g2244
atRp2279
sbag2222
ag2011
atRp2280
sg18
g12
((ltRp2281
sbag1
(g8
g3
NtRp2282
(dp2283
g11
g12
((lp2284
I1
aI2
aI3
aI5
aI7
atRp2285
sg15
I13125
sg16
g12
((lp2286
g1317
ag1082
ag1
(g8
g3
NtRp2287
(dp2288
g11
g12
((lp2289
I1
aI3
aI5
aI7
atRp2290
sg15
I17350
sg16
g12
((lp2291
g1310
ag1075
ag1
(g8
g3
NtRp2292
(dp2293
g11
g12
((lp2294
I3
aI5
aI7
atRp2295
sg15
I17475
sg16
g12
((lp2296
g1303
ag84
ag845
atRp2297
sg18
g12
((lp2298
g1
(g8
g3
NtRp2299
(dp2300
g11
g12
((lp2301
I2
aI3
aI5
aI7
atRp2302
sg15
I19575
sg16
g12
((lp2303
g2292
ag79
ag876
ag1322
atRp2304
sg18
g12
((lp2305
g2282
atRp2306
sbag2287
ag1999
atRp2307
sbag1178
atRp2308
sg18
g12
((lp2309
g1994
ag2282
atRp2310
sbag2222
ag2299
atRp2311
sg18
g12
((ltRp2312
sbatRp2313
sbag1185
ag1
(g8
g3
NtRp2314
(dp2315
g11
g12
((lp2316
I8
aI1
aI2
aI3
atRp2317
sg15
I26125
sg16
g12
((lp2318
g1226
ag1
(g8
g3
NtRp2319
(dp2320
g11
g12
((lp2321
I8
aI2
aI3
atRp2322
sg15
I26250
sg16
g12
((lp2323
g1195
ag72
ag1255
atRp2324
sg18
g12
((lp2325
g883
ag1
(g8
g3
NtRp2326
(dp2327
g11
g12
((lp2328
I8
aI2
aI3
aI5
atRp2329
sg15
I10725
sg16
g12
((lp2330
g1274
ag79
ag2319
ag1262
atRp2331
sg18
g12
((lp2332
g1
(g8
g3
NtRp2333
(dp2334
g11
g12
((lp2335
I8
aI1
aI2
aI3
aI5
atRp2336
sg15
I14800
sg16
g12
((lp2337
g2131
ag2119
ag2326
ag2314
ag1082
atRp2338
sg18
g12
((ltRp2339
sbatRp2340
sbag1
(g8
g3
NtRp2341
(dp2342
g11
g12
((lp2343
I8
aI2
aI3
aI6
atRp2344
sg15
I17375
sg16
g12
((lp2345
g1250
ag792
ag2319
ag1
(g8
g3
NtRp2346
(dp2347
g11
g12
((lp2348
I8
aI3
aI6
atRp2349
sg15
I13725
sg16
g12
((lp2350
g1195
ag785
ag1243
atRp2351
sg18
g12
((lp2352
g2341
ag1233
atRp2353
sbatRp2354
sg18
g12
((lp2355
g1
(g8
g3
NtRp2356
(dp2357
g11
g12
((lp2358
I8
aI1
aI2
aI3
aI6
atRp2359
sg15
I12225
sg16
g12
((lp2360
g1233
ag2341
ag2314
ag1752
ag1
(g8
g3
NtRp2361
(dp2362
g11
g12
((lp2363
I8
aI1
aI2
aI6
atRp2364
sg15
I16525
sg16
g12
((lp2365
g1250
ag2136
ag960
ag1238
atRp2366
sg18
g12
((lp2367
g1
(g8
g3
NtRp2368
(dp2369
g11
g12
((lp2370
I8
aI1
aI2
aI4
aI6
atRp2371
sg15
I11800
sg16
g12
((lp2372
g1
(g8
g3
NtRp2373
(dp2374
g11
g12
((lp2375
I8
aI1
aI2
aI4
atRp2376
sg15
I22850
sg16
g12
((lp2377
g206
ag1
(g8
g3
NtRp2378
(dp2379
g11
g12
((lp2380
I8
aI1
aI4
atRp2381
sg15
I25800
sg16
g12
((lp2382
g280
ag211
ag222
atRp2383
sg18
g12
((lp2384
g2373
ag1
(g8
g3
NtRp2385
(dp2386
g11
g12
((lp2387
I8
aI1
aI3
aI4
atRp2388
sg15
I13675
sg16
g12
((lp2389
g1226
ag2378
ag599
ag1
(g8
g3
NtRp2390
(dp2391
g11
g12
((lp2392
I8
aI3
aI4
atRp2393
sg15
I19625
sg16
g12
((lp2394
g1195
ag141
ag211
atRp2395
sg18
g12
((lp2396
g1281
ag1
(g8
g3
NtRp2397
(dp2398
g11
g12
((lp2399
I8
aI2
aI3
aI4
atRp2400
sg15
I12750
sg16
g12
((lp2401
g206
ag1346
ag2319
ag2390
atRp2402
sg18
g12
((lp2403
g1
(g8
g3
NtRp2404
(dp2405
g11
g12
((lp2406
I8
aI1
aI2
aI3
aI4
atRp2407
sg15
I17250
sg16
g12
((lp2408
g2373
ag2385
ag2397
ag2314
ag1409
atRp2409
sg18
g12
((ltRp2410
sbatRp2411
sbag2385
atRp2412
sbatRp2413
sg18
g12
((lp2414
g2404
ag2114
atRp2415
sbag907
ag1
(g8
g3
NtRp2416
(dp2417
g11
g12
((lp2418
I8
aI1
aI4
aI5
atRp2419
sg15
I10475
sg16
g12
((lp2420
g1
(g8
g3
NtRp2421
(dp2422
g11
g12
((lp2423
I8
aI4
aI5
atRp2424
sg15
I14425
sg16
g12
((lp2425
g1267
ag1291
ag211
atRp2426
sg18
g12
((lp2427
g1281
ag1
(g8
g3
NtRp2428
(dp2429
g11
g12
((lp2430
I8
aI2
aI4
aI5
atRp2431
sg15
I44400
sg16
g12
((lp2432
g206
ag1262
ag1334
ag2421
atRp2433
sg18
g12
((lp2434
g1
(g8
g3
NtRp2435
(dp2436
g11
g12
((lp2437
I8
aI1
aI2
aI4
aI5
atRp2438
sg15
I11800
sg16
g12
((lp2439
g2373
ag2428
ag1975
ag2416
ag2131
atRp2440
sg18
g12
((ltRp2441
sbatRp2442
sbag2416
atRp2443
sbag1884
ag2378
ag2124
atRp2444
sg18
g12
((lp2445
g2114
ag2435
atRp2446
sbag1
(g8
g3
NtRp2447
(dp2448
g11
g12
((lp2449
I8
aI1
aI4
aI6
atRp2450
sg15
I11175
sg16
g12
((lp2451
g1238
ag768
ag2378
ag1
(g8
g3
NtRp2452
(dp2453
g11
g12
((lp2454
I8
aI4
aI6
atRp2455
sg15
I12200
sg16
g12
((lp2456
g773
ag1243
ag211
atRp2457
sg18
g12
((lp2458
g2447
ag1
(g8
g3
NtRp2459
(dp2460
g11
g12
((lp2461
I8
aI2
aI4
aI6
atRp2462
sg15
I23775
sg16
g12
((lp2463
g1250
ag2452
ag1390
ag206
atRp2464
sg18
g12
((lp2465
g2368
atRp2466
sbatRp2467
sbatRp2468
sg18
g12
((lp2469
g2368
atRp2470
sbatRp2471
sbag493
ag2136
atRp2472
sg18
g12
((lp2473
g2404
ag2435
ag2368
atRp2474
sbag2459
ag2361
ag2447
ag1397
atRp2475
sg18
g12
((ltRp2476
sbag2356
atRp2477
sbatRp2478
sg18
g12
((ltRp2479
sbatRp2480
sbag2314
ag2397
atRp2481
sbag435
ag2136
atRp2482
sg18
g12
((lp2483
g2404
ag2333
ag2356
ag2217
atRp2484
sbag2210
atRp2485
sg18
g12
((ltRp2486
sbatRp2487
sbag2131
ag2167
ag2361
ag2373
ag2200
ag2314
atRp2488
sbag1262
ag671
ag2124
atRp2489
sg18
g12
((lp2490
g2333
ag2435
atRp2491
sbag2119
ag1
(g8
g3
NtRp2492
(dp2493
g11
g12
((lp2494
I8
aI1
aI5
aI6
atRp2495
sg15
I14325
sg16
g12
((lp2496
g1238
ag1
(g8
g3
NtRp2497
(dp2498
g11
g12
((lp2499
I8
aI5
aI6
atRp2500
sg15
I10075
sg16
g12
((lp2501
g95
ag1243
ag1267
atRp2502
sg18
g12
((lp2503
g2492
atRp2504
sbag2124
ag2052
atRp2505
sg18
g12
((ltRp2506
sbag2416
atRp2507
sbag1075
ag1274
atRp2508
sg18
g12
((lp2509
g2114
ag2333
atRp2510
sbag2385
ag2107
ag2416
atRp2511
sg18
g12
((ltRp2512
sbag2030
ag2102
ag1994
atRp2513
sbag1409
ag1082
ag1975
ag1341
atRp2514
sg18
g12
((lp2515
g2097
atRp2516
sbag2030
ag1
(g8
g3
NtRp2517
(dp2518
g11
g12
((lp2519
I1
aI2
aI4
aI5
aI6
atRp2520
sg15
I14850
sg16
g12
((lp2521
g2047
ag2059
ag1
(g8
g3
NtRp2522
(dp2523
g11
g12
((lp2524
I2
aI4
aI5
aI6
atRp2525
sg15
I19500
sg16
g12
((lp2526
g1334
ag2064
ag2040
ag1390
atRp2527
sg18
g12
((lp2528
g2517
ag1
(g8
g3
NtRp2529
(dp2530
g11
g12
((lp2531
I2
aI3
aI4
aI5
aI6
atRp2532
sg15
I17375
sg16
g12
((lp2533
g2035
ag1385
ag2522
ag1341
ag2071
atRp2534
sg18
g12
((lp2535
g2097
atRp2536
sbatRp2537
sbag1975
ag1397
atRp2538
sg18
g12
((lp2539
g2097
atRp2540
sbag1404
ag2090
ag2529
atRp2541
sg18
g12
((ltRp2542
sbatRp2543
sbatRp2544
sbag2071
atRp2545
sbag2064
atRp2546
sg18
g12
((lp2547
g2090
ag2529
atRp2548
sbag2522
atRp2549
sbag671
ag2052
atRp2550
sg18
g12
((lp2551
g2090
ag2517
atRp2552
sbag2083
ag1668
ag2492
atRp2553
sbatRp2554
sg18
g12
((lp2555
g2030
ag2517
atRp2556
sbag2522
ag2035
atRp2557
sbag2076
atRp2558
sg18
g12
((lp2559
g2030
ag2529
atRp2560
sbag2047
ag2083
ag2107
ag2023
atRp2561
sg18
g12
((lp2562
g2097
atRp2563
sbag2018
atRp2564
sbag1692
ag2011
ag1704
atRp2565
sg18
g12
((ltRp2566
sbag2244
ag1994
atRp2567
sbag1692
ag2249
atRp2568
sbag2292
atRp2569
sg18
g12
((lp2570
g1994
atRp2571
sbag2011
ag2287
ag2107
ag1987
atRp2572
sg18
g12
((ltRp2573
sbatRp2574
sbag1317
ag1329
ag1975
ag500
atRp2575
sg18
g12
((ltRp2576
sbag2435
ag2102
ag2517
atRp2577
sbatRp2578
sg18
g12
((ltRp2579
sbatRp2580
sbag1975
atRp2581
sg18
g12
((ltRp2582
sbag1934
ag1946
ag1970
atRp2583
sbatRp2584
sg18
g12
((ltRp2585
sbatRp2586
sbag1951
atRp2587
sg18
g12
((ltRp2588
sbag1946
atRp2589
sbag1939
ag1915
atRp2590
sbag828
ag1075
ag1908
atRp2591
sg18
g12
((ltRp2592
sbag1903
ag1939
ag1
(g8
g3
NtRp2593
(dp2594
g11
g12
((lp2595
I1
aI2
aI5
aI9
atRp2596
sg15
I23550
sg16
g12
((lp2597
g1908
ag635
ag1521
ag671
atRp2598
sg18
g12
((ltRp2599
sbag1951
atRp2600
sbatRp2601
sg18
g12
((lp2602
g1958
ag1970
atRp2603
sbag1963
ag1891
atRp2604
sbag1908
atRp2605
sg18
g12
((ltRp2606
sbag1903
ag1826
ag1975
ag1
(g8
g3
NtRp2607
(dp2608
g11
g12
((lp2609
I1
aI11
aI4
aI5
atRp2610
sg15
I10800
sg16
g12
((lp2611
g1
(g8
g3
NtRp2612
(dp2613
g11
g12
((lp2614
I1
aI11
aI4
atRp2615
sg15
I19025
sg16
g12
((lp2616
g280
ag1
(g8
g3
NtRp2617
(dp2618
g11
g12
((lp2619
I11
aI4
atRp2620
sg15
I19150
sg16
g12
((lp2621
g693
ag146
atRp2622
sg18
g12
((lp2623
g2612
ag1
(g8
g3
NtRp2624
(dp2625
g11
g12
((lp2626
I3
aI11
aI4
atRp2627
sg15
I14575
sg16
g12
((lp2628
g2617
ag730
ag141
atRp2629
sg18
g12
((lp2630
g1
(g8
g3
NtRp2631
(dp2632
g11
g12
((lp2633
I3
aI2
aI11
aI4
atRp2634
sg15
I13200
sg16
g12
((lp2635
g2624
ag1346
ag1
(g8
g3
NtRp2636
(dp2637
g11
g12
((lp2638
I11
aI2
aI3
atRp2639
sg15
I19675
sg16
g12
((lp2640
g730
ag72
ag706
atRp2641
sg18
g12
((lp2642
g1
(g8
g3
NtRp2643
(dp2644
g11
g12
((lp2645
I11
aI1
aI2
aI3
atRp2646
sg15
I10800
sg16
g12
((lp2647
g1
(g8
g3
NtRp2648
(dp2649
g11
g12
((lp2650
I11
aI1
aI3
atRp2651
sg15
I22000
sg16
g12
((lp2652
g393
ag730
ag749
atRp2653
sg18
g12
((lp2654
g1
(g8
g3
NtRp2655
(dp2656
g11
g12
((lp2657
I3
aI1
aI11
aI5
atRp2658
sg15
I12800
sg16
g12
((lp2659
g683
ag2648
ag725
ag1075
atRp2660
sg18
g12
((ltRp2661
sbag1
(g8
g3
NtRp2662
(dp2663
g11
g12
((lp2664
I3
aI1
aI11
aI5
atRp2665
sg15
I12025
sg16
g12
((lp2666
g683
ag2648
ag725
ag1075
atRp2667
sg18
g12
((lp2668
g1
(g8
g3
NtRp2669
(dp2670
g11
g12
((lp2671
I11
aI1
aI2
aI3
aI5
atRp2672
sg15
I10600
sg16
g12
((lp2673
g1
(g8
g3
NtRp2674
(dp2675
g11
g12
((lp2676
I11
aI1
aI2
aI3
atRp2677
sg15
I19575
sg16
g12
((lp2678
g2648
ag948
ag2636
ag435
atRp2679
sg18
g12
((lp2680
g1
(g8
g3
NtRp2681
(dp2682
g11
g12
((lp2683
I3
aI1
aI2
aI11
aI4
atRp2684
sg15
I12675
sg16
g12
((lp2685
g2674
ag2631
ag1409
ag1
(g8
g3
NtRp2686
(dp2687
g11
g12
((lp2688
I3
aI1
aI11
aI4
atRp2689
sg15
I14475
sg16
g12
((lp2690
g2612
ag2648
ag599
ag2624
atRp2691
sg18
g12
((lp2692
g2681
ag1
(g8
g3
NtRp2693
(dp2694
g11
g12
((lp2695
I3
aI1
aI2
aI11
aI4
atRp2696
sg15
I10850
sg16
g12
((lp2697
g2674
ag2631
ag1409
ag2686
ag1
(g8
g3
NtRp2698
(dp2699
g11
g12
((lp2700
I1
aI2
aI11
aI4
atRp2701
sg15
I10050
sg16
g12
((lp2702
g2612
ag493
ag1
(g8
g3
NtRp2703
(dp2704
g11
g12
((lp2705
I2
aI11
aI4
atRp2706
sg15
I16850
sg16
g12
((lp2707
g199
ag706
ag2617
atRp2708
sg18
g12
((lp2709
g2631
ag2698
ag1
(g8
g3
NtRp2710
(dp2711
g11
g12
((lp2712
I3
aI2
aI11
aI4
atRp2713
sg15
I14475
sg16
g12
((lp2714
g2624
ag1346
ag2636
ag2703
atRp2715
sg18
g12
((ltRp2716
sbatRp2717
sbag948
atRp2718
sg18
g12
((lp2719
g2681
ag2693
atRp2720
sbatRp2721
sg18
g12
((ltRp2722
sbatRp2723
sbag2698
atRp2724
sg18
g12
((ltRp2725
sbag2693
ag2669
ag1
(g8
g3
NtRp2726
(dp2727
g11
g12
((lp2728
I11
aI1
aI2
aI3
aI5
atRp2729
sg15
I11300
sg16
g12
((lp2730
g2674
ag720
ag1082
ag2662
ag678
atRp2731
sg18
g12
((ltRp2732
sbatRp2733
sbag720
ag1082
ag2662
ag678
atRp2734
sg18
g12
((ltRp2735
sbag2726
atRp2736
sbag1
(g8
g3
NtRp2737
(dp2738
g11
g12
((lp2739
I3
aI1
aI11
aI4
atRp2740
sg15
I10450
sg16
g12
((lp2741
g2612
ag2648
ag599
ag2624
atRp2742
sg18
g12
((ltRp2743
sbag2686
ag2643
ag1
(g8
g3
NtRp2744
(dp2745
g11
g12
((lp2746
I11
aI1
aI3
aI6
atRp2747
sg15
I10450
sg16
g12
((lp2748
g756
ag2648
ag1709
ag1
(g8
g3
NtRp2749
(dp2750
g11
g12
((lp2751
I11
aI3
aI6
atRp2752
sg15
I10500
sg16
g12
((lp2753
g1
(g8
g3
NtRp2754
(dp2755
g11
g12
((lp2756
I11
aI6
atRp2757
sg15
I14050
sg16
g12
((lp2758
g693
ag100
atRp2759
sg18
g12
((lp2760
g756
ag2749
ag1
(g8
g3
NtRp2761
(dp2762
g11
g12
((lp2763
I11
aI3
aI6
atRp2764
sg15
I10500
sg16
g12
((lp2765
g2754
ag730
ag785
atRp2766
sg18
g12
((ltRp2767
sbag1
(g8
g3
NtRp2768
(dp2769
g11
g12
((lp2770
I2
aI11
aI6
atRp2771
sg15
I12225
sg16
g12
((lp2772
g797
ag706
ag2754
atRp2773
sg18
g12
((lp2774
g955
atRp2775
sbatRp2776
sbag730
ag785
atRp2777
sg18
g12
((lp2778
g2744
ag1
(g8
g3
NtRp2779
(dp2780
g11
g12
((lp2781
I11
aI1
aI3
aI6
atRp2782
sg15
I11525
sg16
g12
((lp2783
g756
ag2648
ag1709
ag2749
atRp2784
sg18
g12
((ltRp2785
sbatRp2786
sbatRp2787
sg18
g12
((ltRp2788
sbag2674
ag2779
atRp2789
sbag948
ag2636
ag435
atRp2790
sg18
g12
((ltRp2791
sbag2631
ag720
ag2710
ag1
(g8
g3
NtRp2792
(dp2793
g11
g12
((lp2794
I3
aI2
aI11
aI5
atRp2795
sg15
I11450
sg16
g12
((lp2796
g713
ag79
ag725
ag2636
atRp2797
sg18
g12
((ltRp2798
sbag2674
atRp2799
sbag2703
atRp2800
sg18
g12
((lp2801
g2681
ag2693
atRp2802
sbag2686
ag2710
ag2737
atRp2803
sbag1
(g8
g3
NtRp2804
(dp2805
g11
g12
((lp2806
I11
aI4
aI5
atRp2807
sg15
I10450
sg16
g12
((lp2808
g688
ag1291
ag2617
atRp2809
sg18
g12
((lp2810
g2607
atRp2811
sbag1
(g8
g3
NtRp2812
(dp2813
g11
g12
((lp2814
I3
aI11
aI4
atRp2815
sg15
I14575
sg16
g12
((lp2816
g2617
ag730
ag141
atRp2817
sg18
g12
((ltRp2818
sbag2703
atRp2819
sbag749
atRp2820
sg18
g12
((lp2821
g2737
ag2607
ag2686
ag2698
atRp2822
sbag2804
ag683
ag1884
atRp2823
sg18
g12
((ltRp2824
sbag2416
ag1987
ag2047
ag2107
atRp2825
sbag1
(g8
g3
NtRp2826
(dp2827
g11
g12
((lp2828
I1
aI10
aI5
atRp2829
sg15
I17500
sg16
g12
((lp2830
g1152
ag339
ag117
atRp2831
sg18
g12
((lp2832
g1826
ag1094
ag1
(g8
g3
NtRp2833
(dp2834
g11
g12
((lp2835
I1
aI10
aI3
aI5
atRp2836
sg15
I13250
sg16
g12
((lp2837
g124
ag1075
ag1166
ag2826
atRp2838
sg18
g12
((lp2839
g1
(g8
g3
NtRp2840
(dp2841
g11
g12
((lp2842
I1
aI10
aI3
aI2
aI5
atRp2843
sg15
I10400
sg16
g12
((lp2844
g1094
ag1082
ag1776
ag1106
ag2833
atRp2845
sg18
g12
((ltRp2846
sbag1089
atRp2847
sbag1
(g8
g3
NtRp2848
(dp2849
g11
g12
((lp2850
I1
aI2
aI10
aI5
atRp2851
sg15
I13825
sg16
g12
((lp2852
g1099
ag2826
ag671
ag1533
atRp2853
sg18
g12
((ltRp2854
sbatRp2855
sbag1805
atRp2856
sg18
g12
((ltRp2857
sbatRp2858
sbag1843
ag1793
ag1831
ag194
atRp2859
sbatRp2860
sg18
g12
((lp2861
g1876
ag1812
ag1853
ag1819
ag1788
ag1
(g8
g3
NtRp2862
(dp2863
g11
g12
((lp2864
I2
aI3
aI4
aI10
atRp2865
sg15
I10725
sg16
g12
((lp2866
g1111
ag1346
ag1793
ag136
atRp2867
sg18
g12
((ltRp2868
sbatRp2869
sbag136
atRp2870
sg18
g12
((lp2871
g1860
ag1783
atRp2872
sbag1409
ag1776
ag1853
ag1865
atRp2873
sg18
g12
((ltRp2874
sbag1089
ag2840
ag1759
ag1771
ag1860
atRp2875
sbag1752
ag1142
atRp2876
sg18
g12
((ltRp2877
sbatRp2878
sbag1776
ag1752
ag1142
atRp2879
sg18
g12
((ltRp2880
sbag1771
ag1747
ag2229
ag1404
ag2090
ag2356
atRp2881
sbag1468
atRp2882
sg18
g12
((ltRp2883
sbatRp2884
sbag1728
ag1716
ag1752
ag1468
atRp2885
sg18
g12
((ltRp2886
sbag1747
atRp2887
sbatRp2888
sbatRp2889
sg18
g12
((lp2890
g1735
ag1747
atRp2891
sbag2779
ag2023
ag1752
ag1142
ag1233
ag2083
ag1704
ag2744
atRp2892
sbag1178
atRp2893
sg18
g12
((lp2894
g2018
ag2229
atRp2895
sbag2234
ag1692
atRp2896
sbag2004
ag1685
ag780
atRp2897
sg18
g12
((lp2898
g2018
atRp2899
sbag2261
atRp2900
sbatRp2901
sg18
g12
((lp2902
g2018
ag2268
atRp2903
sbag1704
ag1644
ag1668
atRp2904
sbag2052
atRp2905
sg18
g12
((ltRp2906
sbatRp2907
sbag1697
ag1649
ag1673
ag1685
atRp2908
sbatRp2909
sg18
g12
((lp2910
g1644
ag2234
ag2261
atRp2911
sbag1557
ag1673
atRp2912
sg18
g12
((lp2913
g2268
ag2229
atRp2914
sbag2222
ag2210
atRp2915
sbag1533
atRp2916
sg18
g12
((ltRp2917
sbag1540
atRp2918
sbag1557
ag1533
atRp2919
sg18
g12
((ltRp2920
sbag2143
ag2167
ag1
(g8
g3
NtRp2921
(dp2922
g11
g12
((lp2923
I1
aI2
aI3
aI10
atRp2924
sg15
I15950
sg16
g12
((lp2925
g435
ag1533
ag1166
ag1111
atRp2926
sg18
g12
((ltRp2927
sbag1528
ag1094
ag1552
ag2848
ag1
(g8
g3
NtRp2928
(dp2929
g11
g12
((lp2930
I1
aI2
aI10
aI9
atRp2931
sg15
I10125
sg16
g12
((lp2932
g170
ag1533
ag1
(g8
g3
NtRp2933
(dp2934
g11
g12
((lp2935
I1
aI10
aI9
atRp2936
sg15
I11125
sg16
g12
((lp2937
g175
ag616
ag1152
atRp2938
sg18
g12
((lp2939
g1528
ag2928
ag1
(g8
g3
NtRp2940
(dp2941
g11
g12
((lp2942
I1
aI2
aI10
aI9
atRp2943
sg15
I10725
sg16
g12
((lp2944
g170
ag1533
ag2933
ag1521
atRp2945
sg18
g12
((ltRp2946
sbatRp2947
sbag1521
atRp2948
sg18
g12
((ltRp2949
sbag1853
ag1776
ag1876
ag1764
ag2940
ag1
(g8
g3
NtRp2950
(dp2951
g11
g12
((lp2952
I1
aI2
aI10
aI6
atRp2953
sg15
I12300
sg16
g12
((lp2954
g960
ag1147
ag1123
ag1533
atRp2955
sg18
g12
((ltRp2956
sbatRp2957
sbag2933
ag1521
atRp2958
sg18
g12
((ltRp2959
sbag2188
ag1
(g8
g3
NtRp2960
(dp2961
g11
g12
((lp2962
I1
aI2
aI3
aI9
atRp2963
sg15
I37625
sg16
g12
((lp2964
g1473
ag435
ag828
ag1521
atRp2965
sg18
g12
((ltRp2966
sbag1588
ag2940
ag1740
ag2928
ag1602
ag1504
ag1516
ag2593
ag1468
ag2200
ag1951
ag1
(g8
g3
NtRp2967
(dp2968
g11
g12
((lp2969
I1
aI2
aI6
aI9
atRp2970
sg15
I10025
sg16
g12
((lp2971
g960
ag816
ag1521
ag804
atRp2972
sg18
g12
((ltRp2973
sbag1564
atRp2974
sbag493
atRp2975
sg18
g12
((ltRp2976
sbag1480
ag1504
ag1963
atRp2977
sbag611
ag1521
ag493
atRp2978
sg18
g12
((lp2979
g1463
ag1970
ag1499
ag1958
atRp2980
sbatRp2981
sg18
g12
((ltRp2982
sbatRp2983
sbag606
ag1480
atRp2984
sbag1509
atRp2985
sg18
g12
((lp2986
g1463
ag1499
atRp2987
sbag2960
ag1728
ag1927
atRp2988
sbag435
ag828
ag1521
atRp2989
sg18
g12
((lp2990
g1463
ag1735
ag1934
ag1499
ag1747
ag1946
atRp2991
sbag1480
ag1409
ag1492
ag1504
atRp2992
sg18
g12
((ltRp2993
sbag1860
ag2681
ag1
(g8
g3
NtRp2994
(dp2995
g11
g12
((lp2996
I1
aI2
aI3
aI4
aI12
atRp2997
sg15
I11450
sg16
g12
((lp2998
g1
(g8
g3
NtRp2999
(dp3000
g11
g12
((lp3001
I12
aI2
aI3
aI4
atRp3002
sg15
I10200
sg16
g12
((lp3003
g1
(g8
g3
NtRp3004
(dp3005
g11
g12
((lp3006
I2
aI3
aI12
atRp3007
sg15
I17950
sg16
g12
((lp3008
g315
ag1
(g8
g3
NtRp3009
(dp3010
g11
g12
((lp3011
I2
aI12
atRp3012
sg15
I23550
sg16
g12
((lp3013
g9
ag297
atRp3014
sg18
g12
((lp3015
g1
(g8
g3
NtRp3016
(dp3017
g11
g12
((lp3018
I12
aI2
aI4
atRp3019
sg15
I15325
sg16
g12
((lp3020
g303
ag3009
ag199
atRp3021
sg18
g12
((lp3022
g1
(g8
g3
NtRp3023
(dp3024
g11
g12
((lp3025
I1
aI2
aI4
aI12
atRp3026
sg15
I13425
sg16
g12
((lp3027
g493
ag3016
ag1
(g8
g3
NtRp3028
(dp3029
g11
g12
((lp3030
I1
aI4
aI12
atRp3031
sg15
I17375
sg16
g12
((lp3032
g280
ag292
ag303
atRp3033
sg18
g12
((lp3034
g3023
ag1
(g8
g3
NtRp3035
(dp3036
g11
g12
((lp3037
I1
aI3
aI4
aI12
atRp3038
sg15
I11700
sg16
g12
((lp3039
g1
(g8
g3
NtRp3040
(dp3041
g11
g12
((lp3042
I1
aI3
aI12
atRp3043
sg15
I20375
sg16
g12
((lp3044
g393
ag292
ag315
atRp3045
sg18
g12
((lp3046
g1
(g8
g3
NtRp3047
(dp3048
g11
g12
((lp3049
I1
aI3
aI4
aI12
atRp3050
sg15
I11625
sg16
g12
((lp3051
g3040
ag1
(g8
g3
NtRp3052
(dp3053
g11
g12
((lp3054
I4
aI3
aI12
atRp3055
sg15
I13175
sg16
g12
((lp3056
g303
ag141
ag315
atRp3057
sg18
g12
((lp3058
g3035
ag2999
ag1
(g8
g3
NtRp3059
(dp3060
g11
g12
((lp3061
I1
aI3
aI4
aI12
atRp3062
sg15
I13025
sg16
g12
((lp3063
g3040
ag3052
ag3028
ag599
atRp3064
sg18
g12
((lp3065
g1
(g8
g3
NtRp3066
(dp3067
g11
g12
((lp3068
I1
aI2
aI3
aI4
aI12
atRp3069
sg15
I12750
sg16
g12
((lp3070
g2999
ag1409
ag1
(g8
g3
NtRp3071
(dp3072
g11
g12
((lp3073
I1
aI2
aI3
aI12
atRp3074
sg15
I14350
sg16
g12
((lp3075
g435
ag3040
ag1
(g8
g3
NtRp3076
(dp3077
g11
g12
((lp3078
I1
aI2
aI12
atRp3079
sg15
I23400
sg16
g12
((lp3080
g256
ag3009
ag292
atRp3081
sg18
g12
((lp3082
g1
(g8
g3
NtRp3083
(dp3084
g11
g12
((lp3085
I1
aI2
aI12
aI5
atRp3086
sg15
I12600
sg16
g12
((lp3087
g334
ag1
(g8
g3
NtRp3088
(dp3089
g11
g12
((lp3090
I2
aI12
aI5
atRp3091
sg15
I12700
sg16
g12
((lp3092
g327
ag3009
ag640
atRp3093
sg18
g12
((lp3094
g3083
atRp3095
sbag671
ag3076
atRp3096
sg18
g12
((ltRp3097
sbag3023
ag1
(g8
g3
NtRp3098
(dp3099
g11
g12
((lp3100
I1
aI2
aI4
aI12
atRp3101
sg15
I15175
sg16
g12
((lp3102
g493
ag3016
ag3028
ag3076
atRp3103
sg18
g12
((lp3104
g3066
ag2994
ag1
(g8
g3
NtRp3105
(dp3106
g11
g12
((lp3107
I1
aI2
aI3
aI4
aI12
atRp3108
sg15
I11000
sg16
g12
((lp3109
g2999
ag1409
ag3071
ag3059
ag3098
atRp3110
sg18
g12
((ltRp3111
sbatRp3112
sbag1
(g8
g3
NtRp3113
(dp3114
g11
g12
((lp3115
I1
aI2
aI4
aI12
atRp3116
sg15
I18325
sg16
g12
((lp3117
g493
ag3016
ag3028
ag3076
atRp3118
sg18
g12
((ltRp3119
sbag3071
ag1
(g8
g3
NtRp3120
(dp3121
g11
g12
((lp3122
I1
aI2
aI12
aI6
atRp3123
sg15
I11175
sg16
g12
((lp3124
g960
ag1
(g8
g3
NtRp3125
(dp3126
g11
g12
((lp3127
I2
aI12
aI6
atRp3128
sg15
I11225
sg16
g12
((lp3129
g797
ag3009
ag1
(g8
g3
NtRp3130
(dp3131
g11
g12
((lp3132
I12
aI6
atRp3133
sg15
I12950
sg16
g12
((lp3134
g100
ag297
atRp3135
sg18
g12
((lp3136
g1
(g8
g3
NtRp3137
(dp3138
g11
g12
((lp3139
I1
aI12
aI6
atRp3140
sg15
I12900
sg16
g12
((lp3141
g761
ag3130
ag292
atRp3142
sg18
g12
((lp3143
g3120
atRp3144
sbag3125
atRp3145
sbatRp3146
sg18
g12
((lp3147
g3120
atRp3148
sbag3076
ag3137
atRp3149
sg18
g12
((ltRp3150
sbatRp3151
sbag3004
atRp3152
sg18
g12
((lp3153
g3066
ag2994
ag3105
atRp3154
sbag3059
ag3098
atRp3155
sg18
g12
((ltRp3156
sbag2994
ag3105
atRp3157
sbag1
(g8
g3
NtRp3158
(dp3159
g11
g12
((lp3160
I12
aI2
aI3
aI4
atRp3161
sg15
I12025
sg16
g12
((lp3162
g3004
ag1346
ag3052
ag3016
atRp3163
sg18
g12
((ltRp3164
sbag3047
atRp3165
sbag3028
ag599
atRp3166
sg18
g12
((ltRp3167
sbag3071
ag3035
ag3059
ag1
(g8
g3
NtRp3168
(dp3169
g11
g12
((lp3170
I1
aI3
aI12
aI5
atRp3171
sg15
I11025
sg16
g12
((lp3172
g322
ag3040
ag334
ag1075
atRp3173
sg18
g12
((ltRp3174
sbatRp3175
sbag3052
ag3028
ag599
atRp3176
sg18
g12
((ltRp3177
sbag3059
ag3098
ag3047
ag3113
atRp3178
sbag3076
atRp3179
sg18
g12
((ltRp3180
sbag2999
ag3098
ag3158
ag3113
atRp3181
sbag3125
ag3088
ag3076
ag3004
ag1
(g8
g3
NtRp3182
(dp3183
g11
g12
((lp3184
I12
aI2
aI4
atRp3185
sg15
I15325
sg16
g12
((lp3186
g303
ag3009
ag199
atRp3187
sg18
g12
((ltRp3188
sbatRp3189
sbag72
atRp3190
sg18
g12
((lp3191
g2999
ag3158
ag3071
atRp3192
sbag1346
ag3052
ag3016
atRp3193
sg18
g12
((lp3194
g3066
ag2994
ag3105
atRp3195
sbag1409
ag3071
ag3059
ag3098
atRp3196
sg18
g12
((ltRp3197
sbag2693
ag3066
ag2244
ag3105
ag1499
ag1783
ag1404
ag589
ag2102
ag2404
atRp3198
sbag2023
ag1752
ag1385
atRp3199
sg18
g12
((lp3200
g2097
atRp3201
sbag2368
ag2268
ag2517
atRp3202
sbag2522
ag2459
ag2261
ag1385
atRp3203
sbag792
atRp3204
sg18
g12
((lp3205
g1404
ag2529
atRp3206
sbag1409
ag1480
ag1788
ag2710
ag2249
ag3158
ag2397
ag2999
ag1421
ag2631
ag2862
ag1341
atRp3207
sbag1286
atRp3208
sg18
g12
((lp3209
g2102
ag2529
atRp3210
sbag1812
ag2428
ag1975
ag1819
ag1329
ag1963
ag2522
atRp3211
sbag2254
atRp3212
sg18
g12
((lp3213
g1982
atRp3214
sbag2299
atRp3215
sbag1557
ag671
atRp3216
sg18
g12
((lp3217
g1982
ag2282
atRp3218
sbag2287
ag1668
ag1987
atRp3219
sbag1298
ag1322
ag1661
ag2292
atRp3220
sbatRp3221
sg18
g12
((lp3222
g1329
ag1987
ag1999
atRp3223
sbag1805
ag2421
ag1286
ag2040
ag2804
ag1896
ag1334
ag1884
atRp3224
sbag141
atRp3225
sg18
g12
((lp3226
g1999
ag1281
ag2035
ag1341
ag2107
atRp3227
sbag2390
ag2421
atRp3228
sg18
g12
((lp3229
g2114
atRp3230
sbag2119
ag2326
atRp3231
sbag2421
ag2497
ag1262
ag2124
atRp3232
sbag640
ag1255
atRp3233
sg18
g12
((lp3234
g2131
ag2428
ag2326
atRp3235
sbag888
ag2319
ag2160
ag1250
ag2175
ag2193
ag1
(g8
g3
NtRp3236
(dp3237
g11
g12
((lp3238
I8
aI2
aI11
atRp3239
sg15
I10025
sg16
g12
((lp3240
g1
(g8
g3
NtRp3241
(dp3242
g11
g12
((lp3243
I8
aI11
atRp3244
sg15
I11350
sg16
g12
((lp3245
g216
ag693
atRp3246
sg18
g12
((lp3247
g1
(g8
g3
NtRp3248
(dp3249
g11
g12
((lp3250
I8
aI1
aI11
atRp3251
sg15
I11300
sg16
g12
((lp3252
g222
ag749
ag3241
atRp3253
sg18
g12
((ltRp3254
sbag3236
atRp3255
sbag706
ag1255
atRp3256
sg18
g12
((ltRp3257
sbag2136
atRp3258
sbatRp3259
sg18
g12
((lp3260
g2459
ag2361
ag2341
atRp3261
sbag2452
ag2497
ag2346
ag1238
atRp3262
sbag222
atRp3263
sg18
g12
((lp3264
g2447
ag1233
ag2361
ag2492
atRp3265
sbag2346
ag1709
ag1226
atRp3266
sg18
g12
((lp3267
g2356
atRp3268
sbag1221
ag2385
ag1
(g8
g3
NtRp3269
(dp3270
g11
g12
((lp3271
I8
aI1
aI3
aI9
atRp3272
sg15
I16300
sg16
g12
((lp3273
g1214
ag828
ag1202
ag1226
atRp3274
sg18
g12
((ltRp3275
sbag2314
ag2119
atRp3276
sbatRp3277
sg18
g12
((ltRp3278
sbag3269
ag2188
ag2200
atRp3279
sbag1
(g8
g3
NtRp3280
(dp3281
g11
g12
((lp3282
I8
aI1
aI9
atRp3283
sg15
I13500
sg16
g12
((lp3284
g222
ag616
ag1207
atRp3285
sg18
g12
((ltRp3286
sbag1202
ag2193
atRp3287
sbag833
atRp3288
sg18
g12
((lp3289
g1221
ag3269
atRp3290
sbag2319
ag2390
ag1274
ag2346
ag1190
ag1226
atRp3291
sbag893
atRp3292
sg18
g12
((lp3293
g883
ag1185
atRp3294
sbag1226
atRp3295
sg18
g12
((lp3296
g2217
atRp3297
sbag2011
ag2287
ag1595
ag1616
ag2222
ag1609
ag1704
atRp3298
sbag852
ag1166
ag1545
atRp3299
sg18
g12
((ltRp3300
sbag2833
ag2921
ag1776
ag1865
atRp3301
sbag1533
ag2826
ag1831
ag1545
ag1147
ag2148
ag2933
ag1
(g8
g3
NtRp3302
(dp3303
g11
g12
((lp3304
I1
aI2
aI10
atRp3305
sg15
I28075
sg16
g12
((lp3306
g256
ag187
ag1152
atRp3307
sg18
g12
((ltRp3308
sbatRp3309
sbatRp3310
sg18
g12
((lp3311
g1838
ag2950
ag1142
ag1764
atRp3312
sbag1135
ag1166
ag1709
atRp3313
sg18
g12
((lp3314
g1759
ag1771
atRp3315
sbag1130
atRp3316
sbatRp3317
sg18
g12
((ltRp3318
sbag1764
ag2950
atRp3319
sbag1135
atRp3320
sg18
g12
((lp3321
g1759
ag1771
atRp3322
sbag1106
ag2921
ag1788
ag1
(g8
g3
NtRp3323
(dp3324
g11
g12
((lp3325
I10
aI3
aI2
aI5
atRp3326
sg15
I12775
sg16
g12
((lp3327
g1099
ag79
ag124
ag1111
atRp3328
sg18
g12
((ltRp3329
sbag1776
ag2862
ag1130
atRp3330
sbatRp3331
sg18
g12
((lp3332
g2840
ag1089
atRp3333
sbag1094
ag3323
ag1819
ag1812
ag2848
atRp3334
sbag2826
ag671
ag1533
atRp3335
sg18
g12
((lp3336
g2840
ag1089
atRp3337
sbag1082
ag1776
ag1106
ag2833
atRp3338
sg18
g12
((ltRp3339
sbag1946
ag2726
ag1934
ag2102
ag2282
ag2090
ag2840
ag2669
ag2333
atRp3340
sbag2833
ag2107
ag1070
ag2287
ag2662
ag1915
ag3168
ag1939
ag2655
ag2119
ag1
(g8
g3
NtRp3341
(dp3342
g11
g12
((lp3343
I1
aI3
aI5
aI13
atRp3344
sg15
I10200
sg16
g12
((lp3345
g1075
ag1063
ag1
(g8
g3
NtRp3346
(dp3347
g11
g12
((lp3348
I3
aI5
aI13
atRp3349
sg15
I10250
sg16
g12
((lp3350
g84
ag1020
ag1032
atRp3351
sg18
g12
((lp3352
g1070
ag3341
atRp3353
sbag1
(g8
g3
NtRp3354
(dp3355
g11
g12
((lp3356
I1
aI13
aI5
atRp3357
sg15
I13500
sg16
g12
((lp3358
g977
ag339
ag1020
atRp3359
sg18
g12
((lp3360
g1
(g8
g3
NtRp3361
(dp3362
g11
g12
((lp3363
I1
aI2
aI13
aI5
atRp3364
sg15
I12225
sg16
g12
((lp3365
g972
ag1015
ag671
ag3354
atRp3366
sg18
g12
((ltRp3367
sbag3341
ag1
(g8
g3
NtRp3368
(dp3369
g11
g12
((lp3370
I1
aI2
aI13
aI5
atRp3371
sg15
I11325
sg16
g12
((lp3372
g972
ag1015
ag671
ag3354
atRp3373
sg18
g12
((ltRp3374
sbag1070
atRp3375
sbatRp3376
sg18
g12
((ltRp3377
sbag2083
atRp3378
sbag1063
ag3346
ag3354
atRp3379
sg18
g12
((ltRp3380
sbag3341
ag1433
atRp3381
sbag1051
ag599
atRp3382
sg18
g12
((lp3383
g1416
atRp3384
sbag1449
atRp3385
sbag1442
atRp3386
sbag1032
ag141
atRp3387
sg18
g12
((lp3388
g1421
ag1058
atRp3389
sbag1063
ag3346
ag1426
atRp3390
sbatRp3391
sg18
g12
((ltRp3392
sbag3346
ag1
(g8
g3
NtRp3393
(dp3394
g11
g12
((lp3395
I1
aI13
aI5
atRp3396
sg15
I13500
sg16
g12
((lp3397
g977
ag339
ag1020
atRp3398
sg18
g12
((ltRp3399
sbag3354
ag1
(g8
g3
NtRp3400
(dp3401
g11
g12
((lp3402
I2
aI13
aI5
atRp3403
sg15
I12300
sg16
g12
((lp3404
g1008
ag1020
ag640
atRp3405
sg18
g12
((ltRp3406
sbatRp3407
sbag640
atRp3408
sg18
g12
((lp3409
g3361
ag3368
atRp3410
sbag1003
ag1426
ag1442
ag972
ag3400
atRp3411
sbag797
ag988
atRp3412
sg18
g12
((lp3413
g967
atRp3414
sbatRp3415
sbag1044
ag1008
ag977
ag1032
ag1020
ag1
(g8
g3
NtRp3416
(dp3417
g11
g12
((lp3418
I13
aI5
atRp3419
sg15
I13575
sg16
g12
((lp3420
g982
ag89
atRp3421
sg18
g12
((ltRp3422
sbatRp3423
sbag227
atRp3424
sg18
g12
((lp3425
g3354
ag1051
ag995
ag1063
ag972
ag3393
atRp3426
sbag1008
atRp3427
sg18
g12
((lp3428
g967
ag3368
ag1433
ag1449
ag3361
atRp3429
sbag1003
ag995
atRp3430
sg18
g12
((ltRp3431
sbag955
ag1752
ag1397
ag1764
ag1740
ag2950
ag1644
ag2059
ag3120
ag2967
ag2361
atRp3432
sbag2768
ag948
atRp3433
sg18
g12
((ltRp3434
sbag943
ag2643
ag2674
ag2698
atRp3435
sbag1557
ag936
atRp3436
sg18
g12
((ltRp3437
sbatRp3438
sbag924
atRp3439
sbag917
ag749
atRp3440
sg18
g12
((lp3441
g943
atRp3442
sbag1178
ag1631
ag1
(g8
g3
NtRp3443
(dp3444
g11
g12
((lp3445
I1
aI14
aI7
atRp3446
sg15
I10175
sg16
g12
((lp3447
g568
ag917
ag521
atRp3448
sg18
g12
((ltRp3449
sbag1310
ag1581
ag1
(g8
g3
NtRp3450
(dp3451
g11
g12
((lp3452
I1
aI12
aI7
atRp3453
sg15
I11100
sg16
g12
((lp3454
g1
(g8
g3
NtRp3455
(dp3456
g11
g12
((lp3457
I12
aI7
atRp3458
sg15
I11200
sg16
g12
((lp3459
g297
ag515
atRp3460
sg18
g12
((lp3461
g3450
atRp3462
sbag917
ag292
atRp3463
sg18
g12
((ltRp3464
sbag1673
ag1624
ag505
ag1557
ag1545
atRp3465
sbag222
atRp3466
sg18
g12
((lp3467
g1185
ag2210
ag907
atRp3468
sbag505
ag2378
ag900
atRp3469
sg18
g12
((ltRp3470
sbatRp3471
sbag1190
ag912
atRp3472
sbag869
ag1255
atRp3473
sg18
g12
((lp3474
g883
ag2210
atRp3475
sbag876
ag2319
ag1190
atRp3476
sg18
g12
((lp3477
g2217
atRp3478
sbag2299
ag2234
ag2222
ag2249
atRp3479
sbag1322
ag888
ag1557
ag936
ag1
(g8
g3
NtRp3480
(dp3481
g11
g12
((lp3482
I2
aI10
aI7
atRp3483
sg15
I12425
sg16
g12
((lp3484
g857
ag187
ag869
atRp3485
sg18
g12
((ltRp3486
sbag1569
ag2254
ag1649
atRp3487
sbatRp3488
sg18
g12
((lp3489
g1540
ag1552
atRp3490
sbag852
ag1545
ag3480
atRp3491
sbatRp3492
sg18
g12
((lp3493
g1173
atRp3494
sbag1697
ag876
ag1178
ag1190
ag2292
ag2004
ag840
atRp3495
sbag833
ag1574
atRp3496
sg18
g12
((lp3497
g1609
ag1616
ag1595
atRp3498
sbag1920
ag1721
ag1202
ag1485
ag1
(g8
g3
NtRp3499
(dp3500
g11
g12
((lp3501
I1
aI3
aI9
atRp3502
sg15
I26450
sg16
g12
((lp3503
g393
ag616
ag833
atRp3504
sg18
g12
((ltRp3505
sbag828
ag1473
atRp3506
sbatRp3507
sg18
g12
((lp3508
g823
ag1716
ag3269
ag1221
ag1492
ag1915
ag1595
ag1939
ag606
ag1468
ag1609
ag2960
ag1616
atRp3509
sbag1709
ag1721
atRp3510
sg18
g12
((ltRp3511
sbag1
(g8
g3
NtRp3512
(dp3513
g11
g12
((lp3514
I1
aI4
aI6
aI9
atRp3515
sg15
I17425
sg16
g12
((lp3516
g611
ag768
ag1
(g8
g3
NtRp3517
(dp3518
g11
g12
((lp3519
I9
aI4
aI6
atRp3520
sg15
I10875
sg16
g12
((lp3521
g773
ag152
ag809
atRp3522
sg18
g12
((lp3523
g1
(g8
g3
NtRp3524
(dp3525
g11
g12
((lp3526
I1
aI4
aI6
aI9
atRp3527
sg15
I18375
sg16
g12
((lp3528
g611
ag768
ag3517
ag816
atRp3529
sg18
g12
((ltRp3530
sbag3512
atRp3531
sbag816
atRp3532
sg18
g12
((ltRp3533
sbag3524
ag1740
ag2967
ag1716
atRp3534
sbag1
(g8
g3
NtRp3535
(dp3536
g11
g12
((lp3537
I1
aI6
aI9
atRp3538
sg15
I16625
sg16
g12
((lp3539
g761
ag616
ag809
atRp3540
sg18
g12
((ltRp3541
sbag1721
ag3517
atRp3542
sbag163
atRp3543
sg18
g12
((lp3544
g1740
ag1728
ag2967
atRp3545
sbag2768
ag1250
ag960
ag2064
ag1390
ag1
(g8
g3
NtRp3546
(dp3547
g11
g12
((lp3548
I2
aI10
aI6
atRp3549
sg15
I13875
sg16
g12
((lp3550
g797
ag187
ag106
atRp3551
sg18
g12
((ltRp3552
sbag3125
ag1649
ag1003
ag1123
atRp3553
sbag785
ag72
atRp3554
sg18
g12
((lp3555
g1118
ag1752
ag2341
ag2234
ag1728
ag1130
ag1385
ag2071
atRp3556
sbag1697
ag1721
ag1709
ag1135
ag2749
ag2076
ag2761
ag2346
atRp3557
sbag141
atRp3558
sg18
g12
((lp3559
g2035
ag1385
ag1692
ag2023
atRp3560
sbag768
ag1685
ag1843
ag2040
ag3517
ag2452
ag1390
atRp3561
sbag761
ag280
atRp3562
sg18
g12
((lp3563
g1680
ag3512
ag1397
ag1838
ag2023
ag2447
ag3524
ag2047
atRp3564
sbag1
(g8
g3
NtRp3565
(dp3566
g11
g12
((lp3567
I1
aI6
aI14
atRp3568
sg15
I11475
sg16
g12
((lp3569
g761
ag568
ag1
(g8
g3
NtRp3570
(dp3571
g11
g12
((lp3572
I6
aI14
atRp3573
sg15
I11575
sg16
g12
((lp3574
g100
ag526
atRp3575
sg18
g12
((lp3576
g3565
ag1
(g8
g3
NtRp3577
(dp3578
g11
g12
((lp3579
I1
aI6
aI14
atRp3580
sg15
I11475
sg16
g12
((lp3581
g761
ag568
ag3570
atRp3582
sg18
g12
((ltRp3583
sbatRp3584
sbatRp3585
sg18
g12
((ltRp3586
sbag2052
ag960
ag3137
ag1
(g8
g3
NtRp3587
(dp3588
g11
g12
((lp3589
I1
aI6
aI15
atRp3590
sg15
I10525
sg16
g12
((lp3591
g761
ag1
(g8
g3
NtRp3592
(dp3593
g11
g12
((lp3594
I1
aI15
atRp3595
sg15
I21275
sg16
g12
((lp3596
g1
(g8
g3
NtRp3597
(dp3598
g11
g12
((lp3599
I15
atRp3600
sg15
I21413
sg16
g12
((ltRp3601
sg18
g12
((lp3602
g1
(g8
g3
NtRp3603
(dp3604
g11
g12
((lp3605
I2
aI15
atRp3606
sg15
I19125
sg16
g12
((lp3607
g9
ag3597
atRp3608
sg18
g12
((lp3609
g1
(g8
g3
NtRp3610
(dp3611
g11
g12
((lp3612
I2
aI4
aI15
atRp3613
sg15
I12475
sg16
g12
((lp3614
g1
(g8
g3
NtRp3615
(dp3616
g11
g12
((lp3617
I4
aI15
atRp3618
sg15
I14250
sg16
g12
((lp3619
g3597
ag146
atRp3620
sg18
g12
((lp3621
g1
(g8
g3
NtRp3622
(dp3623
g11
g12
((lp3624
I3
aI4
aI15
atRp3625
sg15
I10725
sg16
g12
((lp3626
g3615
ag141
ag1
(g8
g3
NtRp3627
(dp3628
g11
g12
((lp3629
I3
aI15
atRp3630
sg15
I16150
sg16
g12
((lp3631
g3597
ag36
atRp3632
sg18
g12
((lp3633
g3622
ag1
(g8
g3
NtRp3634
(dp3635
g11
g12
((lp3636
I2
aI3
aI15
atRp3637
sg15
I14400
sg16
g12
((lp3638
g3627
ag72
ag3603
atRp3639
sg18
g12
((lp3640
g1
(g8
g3
NtRp3641
(dp3642
g11
g12
((lp3643
I1
aI2
aI3
aI15
atRp3644
sg15
I14875
sg16
g12
((lp3645
g435
ag3634
ag1
(g8
g3
NtRp3646
(dp3647
g11
g12
((lp3648
I1
aI3
aI15
atRp3649
sg15
I16100
sg16
g12
((lp3650
g393
ag3592
ag3627
atRp3651
sg18
g12
((lp3652
g1
(g8
g3
NtRp3653
(dp3654
g11
g12
((lp3655
I1
aI3
aI4
aI15
atRp3656
sg15
I10625
sg16
g12
((lp3657
g3622
ag1
(g8
g3
NtRp3658
(dp3659
g11
g12
((lp3660
I1
aI4
aI15
atRp3661
sg15
I14225
sg16
g12
((lp3662
g280
ag3592
ag3615
atRp3663
sg18
g12
((lp3664
g3653
ag1
(g8
g3
NtRp3665
(dp3666
g11
g12
((lp3667
I1
aI2
aI4
aI15
atRp3668
sg15
I13700
sg16
g12
((lp3669
g1
(g8
g3
NtRp3670
(dp3671
g11
g12
((lp3672
I1
aI2
aI15
atRp3673
sg15
I19050
sg16
g12
((lp3674
g256
ag3592
ag3603
atRp3675
sg18
g12
((lp3676
g1
(g8
g3
NtRp3677
(dp3678
g11
g12
((lp3679
I1
aI2
aI5
aI15
atRp3680
sg15
I12000
sg16
g12
((lp3681
g1
(g8
g3
NtRp3682
(dp3683
g11
g12
((lp3684
I1
aI5
aI15
atRp3685
sg15
I12125
sg16
g12
((lp3686
g3592
ag339
ag1
(g8
g3
NtRp3687
(dp3688
g11
g12
((lp3689
I5
aI15
atRp3690
sg15
I12175
sg16
g12
((lp3691
g3597
ag89
atRp3692
sg18
g12
((lp3693
g3682
ag1
(g8
g3
NtRp3694
(dp3695
g11
g12
((lp3696
I2
aI5
aI15
atRp3697
sg15
I11025
sg16
g12
((lp3698
g3603
ag3687
ag640
atRp3699
sg18
g12
((lp3700
g3677
atRp3701
sbatRp3702
sbatRp3703
sg18
g12
((lp3704
g3677
atRp3705
sbag3694
ag671
ag3670
atRp3706
sg18
g12
((ltRp3707
sbag3641
ag3665
atRp3708
sbag493
ag3658
ag3610
atRp3709
sg18
g12
((ltRp3710
sbatRp3711
sbag3646
ag599
atRp3712
sg18
g12
((ltRp3713
sbag3641
atRp3714
sbag3670
atRp3715
sg18
g12
((ltRp3716
sbatRp3717
sbag3646
atRp3718
sbatRp3719
sg18
g12
((lp3720
g3653
atRp3721
sbag3658
ag3610
atRp3722
sbag199
ag3603
atRp3723
sg18
g12
((lp3724
g3665
atRp3725
sbag3694
ag3634
ag3670
atRp3726
sbag3592
ag3615
ag3687
ag3627
ag1
(g8
g3
NtRp3727
(dp3728
g11
g12
((lp3729
I6
aI15
atRp3730
sg15
I10575
sg16
g12
((lp3731
g3597
ag100
atRp3732
sg18
g12
((lp3733
g3587
atRp3734
sbatRp3735
sbag227
atRp3736
sg18
g12
((lp3737
g3682
ag3587
ag3658
ag3646
ag3670
atRp3738
sbag3727
atRp3739
sg18
g12
((ltRp3740
sbag816
ag3577
ag1673
ag995
ag3535
ag1238
ag1147
ag1709
atRp3741
sbag2754
ag749
atRp3742
sg18
g12
((lp3743
g2779
ag2744
ag955
atRp3744
sbag3248
ag924
ag948
ag744
ag683
ag2612
ag1
(g8
g3
NtRp3745
(dp3746
g11
g12
((lp3747
I1
aI11
aI9
atRp3748
sg15
I10100
sg16
g12
((lp3749
g749
ag616
ag1
(g8
g3
NtRp3750
(dp3751
g11
g12
((lp3752
I9
aI11
atRp3753
sg15
I10150
sg16
g12
((lp3754
g157
ag693
atRp3755
sg18
g12
((lp3756
g1
(g8
g3
NtRp3757
(dp3758
g11
g12
((lp3759
I1
aI11
aI9
atRp3760
sg15
I10100
sg16
g12
((lp3761
g749
ag616
ag3750
atRp3762
sg18
g12
((ltRp3763
sbag3745
atRp3764
sbatRp3765
sg18
g12
((ltRp3766
sbag2648
ag3757
atRp3767
sbatRp3768
sg18
g12
((ltRp3769
sbag2636
ag2812
ag2624
ag725
ag2749
ag2648
ag1
(g8
g3
NtRp3770
(dp3771
g11
g12
((lp3772
I11
aI2
aI3
atRp3773
sg15
I19675
sg16
g12
((lp3774
g730
ag72
ag706
atRp3775
sg18
g12
((ltRp3776
sbag2761
atRp3777
sbag688
atRp3778
sg18
g12
((lp3779
g2655
ag2662
ag2792
ag720
atRp3780
sbag2636
atRp3781
sg18
g12
((lp3782
g2669
ag2726
atRp3783
sbag2792
atRp3784
sbag2703
ag948
ag2636
ag3770
ag3236
ag936
ag2768
atRp3785
sbag3241
ag929
ag2754
ag688
ag3750
ag749
ag2617
ag730
atRp3786
sbag89
atRp3787
sg18
g12
((lp3788
g683
ag737
ag2804
ag725
ag713
atRp3789
sbag339
ag749
atRp3790
sg18
g12
((lp3791
g678
ag2662
ag2655
ag2607
atRp3792
sbag948
ag671
ag713
atRp3793
sg18
g12
((lp3794
g2669
ag2726
atRp3795
sbag3083
ag1317
ag1094
ag1975
ag3677
ag2131
ag666
ag2848
ag2593
ag2059
ag3361
ag1951
ag3368
ag1082
atRp3796
sbag659
atRp3797
sg18
g12
((ltRp3798
sbatRp3799
sbatRp3800
sbag556
atRp3801
sg18
g12
((lp3802
g666
atRp3803
sbag1322
ag1262
ag1334
ag79
ag3088
ag2064
ag713
ag635
ag3400
ag671
ag1
(g8
g3
NtRp3804
(dp3805
g11
g12
((lp3806
I2
aI10
aI5
atRp3807
sg15
I15500
sg16
g12
((lp3808
g117
ag187
ag640
atRp3809
sg18
g12
((ltRp3810
sbag1099
ag3694
ag1015
atRp3811
sbag163
atRp3812
sg18
g12
((lp3813
g2593
ag1927
ag1951
ag1963
atRp3814
sbag1920
ag1896
ag623
ag1908
atRp3815
sbag339
ag616
atRp3816
sg18
g12
((ltRp3817
sbag3280
ag1159
ag1521
ag611
ag1908
ag1214
ag816
ag1
(g8
g3
NtRp3818
(dp3819
g11
g12
((lp3820
I1
aI4
aI9
atRp3821
sg15
I22125
sg16
g12
((lp3822
g280
ag616
ag152
atRp3823
sg18
g12
((ltRp3824
sbag1631
ag2933
ag1581
ag1624
ag3499
ag1
(g8
g3
NtRp3825
(dp3826
g11
g12
((lp3827
I1
aI2
aI9
atRp3828
sg15
I30925
sg16
g12
((lp3829
g256
ag616
ag163
atRp3830
sg18
g12
((ltRp3831
sbag3535
ag3757
ag828
ag3745
atRp3832
sbag152
atRp3833
sg18
g12
((lp3834
g1891
ag3524
ag1492
ag1903
ag1504
ag606
ag1516
ag3512
atRp3835
sbag828
ag599
ag1485
atRp3836
sg18
g12
((ltRp3837
sbag2023
ag1058
ag3035
ag2011
ag2385
ag3059
ag2737
ag1492
ag3653
ag2107
ag1409
ag594
ag3047
ag2686
ag1865
atRp3838
sbag575
ag1370
atRp3839
sg18
g12
((lp3840
g589
atRp3841
sbag1353
ag1409
ag582
ag1365
atRp3842
sg18
g12
((ltRp3843
sbatRp3844
sbag594
atRp3845
sbag3577
ag659
ag3443
ag3565
ag1370
ag563
atRp3846
sbatRp3847
sg18
g12
((lp3848
g1365
ag582
ag666
atRp3849
sbag647
ag551
ag1358
atRp3850
sbatRp3851
sg18
g12
((lp3852
g1353
ag582
atRp3853
sbag575
atRp3854
sbag141
atRp3855
sg18
g12
((lp3856
g1353
ag594
atRp3857
sbag1358
ag1370
atRp3858
sbag652
ag521
ag1
(g8
g3
NtRp3859
(dp3860
g11
g12
((lp3861
I6
aI14
atRp3862
sg15
I11575
sg16
g12
((lp3863
g100
ag526
atRp3864
sg18
g12
((ltRp3865
sbag3570
ag556
ag568
ag544
atRp3866
sbag515
atRp3867
sg18
g12
((lp3868
g3443
atRp3869
sbag929
ag845
ag1303
ag917
ag893
ag3455
ag1654
ag510
ag857
ag1574
ag869
atRp3870
sbatRp3871
sg18
g12
((lp3872
g1298
ag900
ag2004
ag505
ag2254
ag1685
atRp3873
sbag917
ag280
atRp3874
sg18
g12
((lp3875
g500
ag1680
ag907
ag2011
ag1987
atRp3876
sbag1557
ag2254
atRp3877
sg18
g12
((lp3878
g1982
ag2268
ag2244
atRp3879
sbag1449
ag1
(g8
g3
NtRp3880
(dp3881
g11
g12
((lp3882
I1
aI2
aI4
aI17
atRp3883
sg15
I12450
sg16
g12
((lp3884
g493
ag481
ag1
(g8
g3
NtRp3885
(dp3886
g11
g12
((lp3887
I17
aI2
aI4
atRp3888
sg15
I10650
sg16
g12
((lp3889
g199
ag467
ag362
atRp3890
sg18
g12
((lp3891
g488
ag3880
atRp3892
sbag369
atRp3893
sg18
g12
((ltRp3894
sbag1853
ag1365
ag1
(g8
g3
NtRp3895
(dp3896
g11
g12
((lp3897
I1
aI2
aI4
aI18
atRp3898
sg15
I11025
sg16
g12
((lp3899
g493
ag1
(g8
g3
NtRp3900
(dp3901
g11
g12
((lp3902
I1
aI18
aI4
atRp3903
sg15
I11425
sg16
g12
((lp3904
g280
ag1
(g8
g3
NtRp3905
(dp3906
g11
g12
((lp3907
I18
aI4
atRp3908
sg15
I11525
sg16
g12
((lp3909
g146
ag1
(g8
g3
NtRp3910
(dp3911
g11
g12
((lp3912
I18
atRp3913
sg15
I17963
sg16
g12
((ltRp3914
sg18
g12
((lp3915
g1
(g8
g3
NtRp3916
(dp3917
g11
g12
((lp3918
I2
aI18
atRp3919
sg15
I15500
sg16
g12
((lp3920
g9
ag3910
atRp3921
sg18
g12
((lp3922
g1
(g8
g3
NtRp3923
(dp3924
g11
g12
((lp3925
I2
aI4
aI18
atRp3926
sg15
I10250
sg16
g12
((lp3927
g3916
ag3905
ag199
atRp3928
sg18
g12
((ltRp3929
sbag1
(g8
g3
NtRp3930
(dp3931
g11
g12
((lp3932
I2
aI4
aI18
atRp3933
sg15
I10250
sg16
g12
((lp3934
g3916
ag3905
ag199
atRp3935
sg18
g12
((lp3936
g3895
ag1
(g8
g3
NtRp3937
(dp3938
g11
g12
((lp3939
I1
aI2
aI4
aI18
atRp3940
sg15
I11900
sg16
g12
((lp3941
g493
ag3900
ag3930
ag1
(g8
g3
NtRp3942
(dp3943
g11
g12
((lp3944
I1
aI2
aI18
atRp3945
sg15
I15400
sg16
g12
((lp3946
g256
ag1
(g8
g3
NtRp3947
(dp3948
g11
g12
((lp3949
I1
aI18
atRp3950
sg15
I17325
sg16
g12
((lp3951
g227
ag3910
atRp3952
sg18
g12
((lp3953
g1
(g8
g3
NtRp3954
(dp3955
g11
g12
((lp3956
I1
aI2
aI18
atRp3957
sg15
I15400
sg16
g12
((lp3958
g256
ag3947
ag3916
atRp3959
sg18
g12
((ltRp3960
sbag3942
ag1
(g8
g3
NtRp3961
(dp3962
g11
g12
((lp3963
I1
aI18
aI3
atRp3964
sg15
I12500
sg16
g12
((lp3965
g393
ag1
(g8
g3
NtRp3966
(dp3967
g11
g12
((lp3968
I18
aI3
atRp3969
sg15
I12575
sg16
g12
((lp3970
g36
ag3910
atRp3971
sg18
g12
((lp3972
g1
(g8
g3
NtRp3973
(dp3974
g11
g12
((lp3975
I18
aI3
aI2
atRp3976
sg15
I11225
sg16
g12
((lp3977
g3916
ag72
ag3966
atRp3978
sg18
g12
((lp3979
g1
(g8
g3
NtRp3980
(dp3981
g11
g12
((lp3982
I1
aI18
aI3
aI2
atRp3983
sg15
I10600
sg16
g12
((lp3984
g435
ag3942
ag3961
ag3973
atRp3985
sg18
g12
((ltRp3986
sbag1
(g8
g3
NtRp3987
(dp3988
g11
g12
((lp3989
I1
aI18
aI3
aI2
atRp3990
sg15
I21600
sg16
g12
((lp3991
g435
ag3942
ag3961
ag3973
atRp3992
sg18
g12
((ltRp3993
sbatRp3994
sbag3961
ag1
(g8
g3
NtRp3995
(dp3996
g11
g12
((lp3997
I18
aI3
aI2
atRp3998
sg15
I11225
sg16
g12
((lp3999
g3916
ag72
ag3966
atRp4000
sg18
g12
((ltRp4001
sbatRp4002
sbag3947
atRp4003
sg18
g12
((lp4004
g3980
ag3987
atRp4005
sbag3900
atRp4006
sbag3916
atRp4007
sg18
g12
((lp4008
g3895
ag3980
ag3987
ag3937
atRp4009
sbatRp4010
sg18
g12
((ltRp4011
sbatRp4012
sbag3954
ag3995
ag3942
ag3973
atRp4013
sbag3905
ag3966
ag1
(g8
g3
NtRp4014
(dp4015
g11
g12
((lp4016
I2
aI18
atRp4017
sg15
I15500
sg16
g12
((lp4018
g9
ag3910
atRp4019
sg18
g12
((ltRp4020
sbag3947
atRp4021
sbatRp4022
sg18
g12
((lp4023
g3923
ag3930
ag3900
atRp4024
sbag3947
atRp4025
sg18
g12
((lp4026
g3895
ag3937
atRp4027
sbag3930
ag3942
atRp4028
sg18
g12
((ltRp4029
sbag1409
ag1975
ag3113
ag3937
ag2698
ag1
(g8
g3
NtRp4030
(dp4031
g11
g12
((lp4032
I16
aI1
aI2
aI4
atRp4033
sg15
I11450
sg16
g12
((lp4034
g493
ag1
(g8
g3
NtRp4035
(dp4036
g11
g12
((lp4037
I16
aI2
aI4
atRp4038
sg15
I11525
sg16
g12
((lp4039
g1
(g8
g3
NtRp4040
(dp4041
g11
g12
((lp4042
I16
aI2
atRp4043
sg15
I17800
sg16
g12
((lp4044
g9
ag1
(g8
g3
NtRp4045
(dp4046
g11
g12
((lp4047
I16
atRp4048
sg15
I20163
sg16
g12
((ltRp4049
sg18
g12
((lp4050
g1
(g8
g3
NtRp4051
(dp4052
g11
g12
((lp4053
I16
aI3
atRp4054
sg15
I15100
sg16
g12
((lp4055
g4045
ag36
atRp4056
sg18
g12
((lp4057
g1
(g8
g3
NtRp4058
(dp4059
g11
g12
((lp4060
I16
aI2
aI3
atRp4061
sg15
I13150
sg16
g12
((lp4062
g4040
ag72
ag4051
atRp4063
sg18
g12
((lp4064
g1
(g8
g3
NtRp4065
(dp4066
g11
g12
((lp4067
I16
aI1
aI2
aI3
atRp4068
sg15
I13075
sg16
g12
((lp4069
g435
ag1
(g8
g3
NtRp4070
(dp4071
g11
g12
((lp4072
I16
aI1
aI3
atRp4073
sg15
I15025
sg16
g12
((lp4074
g393
ag4051
ag1
(g8
g3
NtRp4075
(dp4076
g11
g12
((lp4077
I16
aI1
atRp4078
sg15
I20050
sg16
g12
((lp4079
g4045
ag227
atRp4080
sg18
g12
((lp4081
g1
(g8
g3
NtRp4082
(dp4083
g11
g12
((lp4084
I16
aI1
aI2
atRp4085
sg15
I17650
sg16
g12
((lp4086
g4075
ag256
ag4040
atRp4087
sg18
g12
((lp4088
g4030
ag4065
atRp4089
sbag4070
ag1
(g8
g3
NtRp4090
(dp4091
g11
g12
((lp4092
I16
aI1
aI4
atRp4093
sg15
I13175
sg16
g12
((lp4094
g4075
ag280
ag1
(g8
g3
NtRp4095
(dp4096
g11
g12
((lp4097
I16
aI4
atRp4098
sg15
I13250
sg16
g12
((lp4099
g4045
ag146
atRp4100
sg18
g12
((lp4101
g4090
ag4035
atRp4102
sbatRp4103
sg18
g12
((lp4104
g4030
atRp4105
sbag1
(g8
g3
NtRp4106
(dp4107
g11
g12
((lp4108
I16
aI1
aI5
atRp4109
sg15
I10675
sg16
g12
((lp4110
g4075
ag339
ag1
(g8
g3
NtRp4111
(dp4112
g11
g12
((lp4113
I16
aI5
atRp4114
sg15
I10750
sg16
g12
((lp4115
g4045
ag89
atRp4116
sg18
g12
((lp4117
g4106
atRp4118
sbatRp4119
sg18
g12
((ltRp4120
sbatRp4121
sbatRp4122
sg18
g12
((lp4123
g4065
atRp4124
sbag4082
ag4058
atRp4125
sg18
g12
((ltRp4126
sbatRp4127
sbag4070
atRp4128
sbag4095
ag4111
ag4075
ag4040
atRp4129
sbatRp4130
sg18
g12
((lp4131
g4058
ag4035
ag4082
atRp4132
sbag199
ag4095
atRp4133
sg18
g12
((lp4134
g4030
atRp4135
sbag4090
ag4082
atRp4136
sg18
g12
((ltRp4137
sbag1876
ag488
ag3098
ag1516
ag1397
ag3023
ag2373
ag3665
ag1504
atRp4138
sbag481
ag3885
ag369
atRp4139
sg18
g12
((ltRp4140
sbag3880
ag1
(g8
g3
NtRp4141
(dp4142
g11
g12
((lp4143
I1
aI2
aI3
aI17
atRp4144
sg15
I14775
sg16
g12
((lp4145
g435
ag388
ag447
ag481
atRp4146
sg18
g12
((ltRp4147
sbatRp4148
sbag3885
ag447
atRp4149
sbatRp4150
sg18
g12
((lp4151
g442
ag4141
atRp4152
sbag481
atRp4153
sg18
g12
((ltRp4154
sbag1
(g8
g3
NtRp4155
(dp4156
g11
g12
((lp4157
I3
aI1
aI2
aI19
atRp4158
sg15
I24850
sg16
g12
((lp4159
g263
ag1
(g8
g3
NtRp4160
(dp4161
g11
g12
((lp4162
I3
aI1
aI19
atRp4163
sg15
I12600
sg16
g12
((lp4164
g393
ag268
ag31
atRp4165
sg18
g12
((lp4166
g1
(g8
g3
NtRp4167
(dp4168
g11
g12
((lp4169
I3
aI1
aI2
aI19
atRp4170
sg15
I12150
sg16
g12
((lp4171
g263
ag4160
ag1
(g8
g3
NtRp4172
(dp4173
g11
g12
((lp4174
I3
aI2
aI19
atRp4175
sg15
I11075
sg16
g12
((lp4176
g31
ag20
ag72
atRp4177
sg18
g12
((lp4178
g4167
ag4155
atRp4179
sbag435
atRp4180
sg18
g12
((ltRp4181
sbag4155
atRp4182
sbag4172
ag435
atRp4183
sg18
g12
((ltRp4184
sbag2643
ag1468
ag4141
ag1
(g8
g3
NtRp4185
(dp4186
g11
g12
((lp4187
I1
aI2
aI3
aI21
atRp4188
sg15
I11450
sg16
g12
((lp4189
g435
ag1
(g8
g3
NtRp4190
(dp4191
g11
g12
((lp4192
I1
aI3
aI21
atRp4193
sg15
I11700
sg16
g12
((lp4194
g393
ag1
(g8
g3
NtRp4195
(dp4196
g11
g12
((lp4197
I1
aI21
atRp4198
sg15
I15450
sg16
g12
((lp4199
g227
ag1
(g8
g3
NtRp4200
(dp4201
g11
g12
((lp4202
I21
atRp4203
sg15
I15491
sg16
g12
((ltRp4204
sg18
g12
((lp4205
g1
(g8
g3
NtRp4206
(dp4207
g11
g12
((lp4208
I3
aI21
atRp4209
sg15
I11775
sg16
g12
((lp4210
g36
ag4200
atRp4211
sg18
g12
((lp4212
g1
(g8
g3
NtRp4213
(dp4214
g11
g12
((lp4215
I2
aI3
aI21
atRp4216
sg15
I10475
sg16
g12
((lp4217
g4206
ag72
ag1
(g8
g3
NtRp4218
(dp4219
g11
g12
((lp4220
I2
aI21
atRp4221
sg15
I13825
sg16
g12
((lp4222
g9
ag4200
atRp4223
sg18
g12
((lp4224
g4213
ag1
(g8
g3
NtRp4225
(dp4226
g11
g12
((lp4227
I1
aI2
aI21
atRp4228
sg15
I13725
sg16
g12
((lp4229
g256
ag4218
ag4195
atRp4230
sg18
g12
((lp4231
g4185
atRp4232
sbatRp4233
sbatRp4234
sg18
g12
((lp4235
g4185
atRp4236
sbag4190
atRp4237
sbag4195
ag1
(g8
g3
NtRp4238
(dp4239
g11
g12
((lp4240
I4
aI21
atRp4241
sg15
I10250
sg16
g12
((lp4242
g146
ag4200
atRp4243
sg18
g12
((lp4244
g1
(g8
g3
NtRp4245
(dp4246
g11
g12
((lp4247
I1
aI4
aI21
atRp4248
sg15
I10150
sg16
g12
((lp4249
g280
ag4238
ag4195
atRp4250
sg18
g12
((ltRp4251
sbatRp4252
sbag4218
atRp4253
sbatRp4254
sg18
g12
((lp4255
g4190
ag4245
ag4225
atRp4256
sbag4206
atRp4257
sg18
g12
((lp4258
g4185
atRp4259
sbag4213
ag4225
atRp4260
sg18
g12
((ltRp4261
sbag582
ag1
(g8
g3
NtRp4262
(dp4263
g11
g12
((lp4264
I1
aI2
aI3
aI20
atRp4265
sg15
I10400
sg16
g12
((lp4266
g1
(g8
g3
NtRp4267
(dp4268
g11
g12
((lp4269
I1
aI3
aI20
atRp4270
sg15
I11825
sg16
g12
((lp4271
g393
ag1
(g8
g3
NtRp4272
(dp4273
g11
g12
((lp4274
I1
aI20
atRp4275
sg15
I15075
sg16
g12
((lp4276
g1
(g8
g3
NtRp4277
(dp4278
g11
g12
((lp4279
I20
atRp4280
sg15
I16274
sg16
g12
((ltRp4281
sg18
g12
((lp4282
g1
(g8
g3
NtRp4283
(dp4284
g11
g12
((lp4285
I3
aI20
atRp4286
sg15
I11875
sg16
g12
((lp4287
g4277
ag36
atRp4288
sg18
g12
((lp4289
g1
(g8
g3
NtRp4290
(dp4291
g11
g12
((lp4292
I2
aI3
aI20
atRp4293
sg15
I10650
sg16
g12
((lp4294
g4283
ag72
ag1
(g8
g3
NtRp4295
(dp4296
g11
g12
((lp4297
I2
aI20
atRp4298
sg15
I13750
sg16
g12
((lp4299
g9
ag4277
atRp4300
sg18
g12
((lp4301
g4290
ag1
(g8
g3
NtRp4302
(dp4303
g11
g12
((lp4304
I1
aI2
aI20
atRp4305
sg15
I13625
sg16
g12
((lp4306
g256
ag4272
ag4295
atRp4307
sg18
g12
((lp4308
g4262
atRp4309
sbatRp4310
sbatRp4311
sg18
g12
((lp4312
g4262
atRp4313
sbag4267
atRp4314
sbag4272
ag4295
atRp4315
sbag227
atRp4316
sg18
g12
((lp4317
g4302
ag4267
atRp4318
sbag4283
atRp4319
sg18
g12
((lp4320
g4262
atRp4321
sbag435
ag4302
ag4290
atRp4322
sg18
g12
((ltRp4323
sbag3641
ag3071
ag1433
ag430
ag2921
ag3987
ag4167
ag3980
ag1776
ag4065
ag2222
ag1752
ag1082
ag1409
ag2960
ag2314
ag2674
atRp4324
sbag400
ag1
(g8
g3
NtRp4325
(dp4326
g11
g12
((lp4327
I24
aI1
aI2
atRp4328
sg15
I13175
sg16
g12
((lp4329
g256
ag1
(g8
g3
NtRp4330
(dp4331
g11
g12
((lp4332
I24
aI1
atRp4333
sg15
I14775
sg16
g12
((lp4334
g227
ag410
atRp4335
sg18
g12
((lp4336
g400
ag4325
atRp4337
sbag416
atRp4338
sg18
g12
((lp4339
g430
atRp4340
sbag423
atRp4341
sg18
g12
((ltRp4342
sbatRp4343
sbag4325
atRp4344
sbag405
ag4330
atRp4345
sbatRp4346
sg18
g12
((lp4347
g423
ag400
atRp4348
sbag4330
atRp4349
sg18
g12
((lp4350
g430
atRp4351
sbag3961
ag4160
ag3040
ag1063
ag575
ag1166
ag459
ag4190
ag4267
ag1
(g8
g3
NtRp4352
(dp4353
g11
g12
((lp4354
I1
aI3
aI23
atRp4355
sg15
I10750
sg16
g12
((lp4356
g393
ag1
(g8
g3
NtRp4357
(dp4358
g11
g12
((lp4359
I3
aI23
atRp4360
sg15
I10825
sg16
g12
((lp4361
g1
(g8
g3
NtRp4362
(dp4363
g11
g12
((lp4364
I23
atRp4365
sg15
I14176
sg16
g12
((ltRp4366
sg18
g12
((lp4367
g1
(g8
g3
NtRp4368
(dp4369
g11
g12
((lp4370
I1
aI23
atRp4371
sg15
I14125
sg16
g12
((lp4372
g4362
ag227
atRp4373
sg18
g12
((lp4374
g1
(g8
g3
NtRp4375
(dp4376
g11
g12
((lp4377
I1
aI2
aI23
atRp4378
sg15
I12250
sg16
g12
((lp4379
g256
ag1
(g8
g3
NtRp4380
(dp4381
g11
g12
((lp4382
I2
aI23
atRp4383
sg15
I12350
sg16
g12
((lp4384
g9
ag4362
atRp4385
sg18
g12
((lp4386
g4375
atRp4387
sbag4368
atRp4388
sg18
g12
((ltRp4389
sbag4352
atRp4390
sbag4357
ag4380
atRp4391
sbag36
atRp4392
sg18
g12
((lp4393
g4352
atRp4394
sbag4368
atRp4395
sg18
g12
((ltRp4396
sbag435
ag1
(g8
g3
NtRp4397
(dp4398
g11
g12
((lp4399
I3
aI1
aI19
atRp4400
sg15
I12600
sg16
g12
((lp4401
g393
ag268
ag31
atRp4402
sg18
g12
((ltRp4403
sbag4070
ag1075
ag1
(g8
g3
NtRp4404
(dp4405
g11
g12
((lp4406
I1
aI3
aI22
atRp4407
sg15
I11500
sg16
g12
((lp4408
g393
ag49
ag1
(g8
g3
NtRp4409
(dp4410
g11
g12
((lp4411
I1
aI22
atRp4412
sg15
I15050
sg16
g12
((lp4413
g227
ag54
atRp4414
sg18
g12
((lp4415
g1
(g8
g3
NtRp4416
(dp4417
g11
g12
((lp4418
I1
aI2
aI22
atRp4419
sg15
I13000
sg16
g12
((lp4420
g256
ag4409
ag60
atRp4421
sg18
g12
((ltRp4422
sbag4404
atRp4423
sbatRp4424
sg18
g12
((ltRp4425
sbag599
ag1178
ag1709
ag1226
ag3499
ag3646
ag744
ag388
ag2648
ag828
atRp4426
sbag374
ag452
atRp4427
sg18
g12
((lp4428
g442
ag4141
atRp4429
sbag481
ag1
(g8
g3
NtRp4430
(dp4431
g11
g12
((lp4432
I1
aI5
aI17
atRp4433
sg15
I10275
sg16
g12
((lp4434
g351
ag339
ag374
atRp4435
sg18
g12
((ltRp4436
sbag369
ag459
ag474
atRp4437
sbag362
atRp4438
sg18
g12
((lp4439
g488
ag3880
atRp4440
sbag3885
ag381
atRp4441
sbag467
ag1
(g8
g3
NtRp4442
(dp4443
g11
g12
((lp4444
I1
aI17
atRp4445
sg15
I18275
sg16
g12
((lp4446
g356
ag227
atRp4447
sg18
g12
((ltRp4448
sbag452
ag374
atRp4449
sbag89
atRp4450
sg18
g12
((lp4451
g346
ag4430
atRp4452
sbag339
ag374
atRp4453
sg18
g12
((ltRp4454
sbag659
ag3354
ag4106
ag683
ag2052
ag3682
ag1884
ag1908
ag2826
ag1310
ag4430
ag2124
ag1075
ag623
ag334
ag3393
ag671
atRp4455
sbag292
atRp4456
sg18
g12
((lp4457
g3168
ag3083
atRp4458
sbag3088
atRp4459
sbatRp4460
sg18
g12
((lp4461
g3168
atRp4462
sbag310
ag3040
ag3052
ag3004
atRp4463
sbatRp4464
sg18
g12
((ltRp4465
sbag3016
ag3052
ag1
(g8
g3
NtRp4466
(dp4467
g11
g12
((lp4468
I1
aI4
aI12
atRp4469
sg15
I17375
sg16
g12
((lp4470
g280
ag292
ag303
atRp4471
sg18
g12
((ltRp4472
sbag3182
ag3028
atRp4473
sbag292
ag3009
ag315
ag1
(g8
g3
NtRp4474
(dp4475
g11
g12
((lp4476
I8
aI12
atRp4477
sg15
I10400
sg16
g12
((lp4478
g216
ag297
atRp4479
sg18
g12
((lp4480
g1
(g8
g3
NtRp4481
(dp4482
g11
g12
((lp4483
I8
aI1
aI12
atRp4484
sg15
I10300
sg16
g12
((lp4485
g222
ag292
ag4474
atRp4486
sg18
g12
((ltRp4487
sbatRp4488
sbag3130
ag3455
ag1
(g8
g3
NtRp4489
(dp4490
g11
g12
((lp4491
I12
aI4
atRp4492
sg15
I17525
sg16
g12
((lp4493
g146
ag297
atRp4494
sg18
g12
((ltRp4495
sbag327
atRp4496
sbatRp4497
sg18
g12
((lp4498
g287
ag4481
ag3450
ag3076
ag3137
ag334
ag3040
ag4466
ag3028
atRp4499
sbag303
atRp4500
sg18
g12
((ltRp4501
sbag1884
ag768
ag505
ag275
ag3900
ag1831
ag3028
ag493
ag4245
ag2612
ag2378
ag369
ag599
ag611
ag4466
ag4090
ag3818
ag381
ag3658
ag1370
ag1051
atRp4502
sbag268
ag1
(g8
g3
NtRp4503
(dp4504
g11
g12
((lp4505
I19
aI4
atRp4506
sg15
I11150
sg16
g12
((lp4507
g146
ag25
atRp4508
sg18
g12
((lp4509
g275
atRp4510
sbatRp4511
sg18
g12
((ltRp4512
sbag4160
ag263
ag4397
atRp4513
sbatRp4514
sg18
g12
((lp4515
g4167
ag4155
atRp4516
sbag3076
ag3954
ag3670
ag3825
ag563
ag3942
ag474
ag948
ag1521
ag1
(g8
g3
NtRp4517
(dp4518
g11
g12
((lp4519
I1
aI2
aI25
atRp4520
sg15
I11200
sg16
g12
((lp4521
g256
ag1
(g8
g3
NtRp4522
(dp4523
g11
g12
((lp4524
I1
aI25
atRp4525
sg15
I12875
sg16
g12
((lp4526
g1
(g8
g3
NtRp4527
(dp4528
g11
g12
((lp4529
I25
atRp4530
sg15
I12714
sg16
g12
((ltRp4531
sg18
g12
((lp4532
g1
(g8
g3
NtRp4533
(dp4534
g11
g12
((lp4535
I1
aI25
atRp4536
sg15
I12875
sg16
g12
((lp4537
g4527
ag227
atRp4538
sg18
g12
((ltRp4539
sbag4522
ag1
(g8
g3
NtRp4540
(dp4541
g11
g12
((lp4542
I25
aI2
atRp4543
sg15
I11250
sg16
g12
((lp4544
g9
ag4527
atRp4545
sg18
g12
((lp4546
g1
(g8
g3
NtRp4547
(dp4548
g11
g12
((lp4549
I1
aI2
aI25
atRp4550
sg15
I11200
sg16
g12
((lp4551
g256
ag4522
ag4540
atRp4552
sg18
g12
((ltRp4553
sbag4517
atRp4554
sbatRp4555
sbag227
atRp4556
sg18
g12
((lp4557
g4547
ag4517
atRp4558
sbag4540
atRp4559
sg18
g12
((ltRp4560
sbag960
ag1557
ag493
ag671
ag4082
ag435
ag1
(g8
g3
NtRp4561
(dp4562
g11
g12
((lp4563
I1
aI2
aI26
atRp4564
sg15
I11075
sg16
g12
((lp4565
g256
ag1
(g8
g3
NtRp4566
(dp4567
g11
g12
((lp4568
I2
aI26
atRp4569
sg15
I11100
sg16
g12
((lp4570
g9
ag1
(g8
g3
NtRp4571
(dp4572
g11
g12
((lp4573
I26
atRp4574
sg15
I12304
sg16
g12
((ltRp4575
sg18
g12
((lp4576
g1
(g8
g3
NtRp4577
(dp4578
g11
g12
((lp4579
I2
aI26
atRp4580
sg15
I11100
sg16
g12
((lp4581
g9
ag4571
atRp4582
sg18
g12
((ltRp4583
sbag4566
ag1
(g8
g3
NtRp4584
(dp4585
g11
g12
((lp4586
I1
aI26
atRp4587
sg15
I12425
sg16
g12
((lp4588
g4571
ag227
atRp4589
sg18
g12
((lp4590
g4561
ag1
(g8
g3
NtRp4591
(dp4592
g11
g12
((lp4593
I1
aI2
aI26
atRp4594
sg15
I11075
sg16
g12
((lp4595
g256
ag4566
ag4584
atRp4596
sg18
g12
((ltRp4597
sbatRp4598
sbatRp4599
sbatRp4600
sg18
g12
((lp4601
g4561
ag4591
atRp4602
sbag4584
atRp4603
sg18
g12
((ltRp4604
sbag4302
ag4225
ag4416
ag4375
ag4325
ag1
(g8
g3
NtRp4605
(dp4606
g11
g12
((lp4607
I1
aI2
aI28
atRp4608
sg15
I10275
sg16
g12
((lp4609
g256
ag1
(g8
g3
NtRp4610
(dp4611
g11
g12
((lp4612
I2
aI28
atRp4613
sg15
I10375
sg16
g12
((lp4614
g9
ag1
(g8
g3
NtRp4615
(dp4616
g11
g12
((lp4617
I28
atRp4618
sg15
I11395
sg16
g12
((ltRp4619
sg18
g12
((lp4620
g1
(g8
g3
NtRp4621
(dp4622
g11
g12
((lp4623
I1
aI28
atRp4624
sg15
I11650
sg16
g12
((lp4625
g227
ag4615
atRp4626
sg18
g12
((lp4627
g4605
atRp4628
sbag4610
atRp4629
sbatRp4630
sg18
g12
((lp4631
g4605
atRp4632
sbag4621
atRp4633
sg18
g12
((ltRp4634
sbag4591
ag4547
ag3302
ag251
ag481
ag2136
ag1533
ag972
atRp4635
sbag244
ag233
atRp4636
sg18
g12
((ltRp4637
sbatRp4638
sbatRp4639
sbag227
atRp4640
sg18
g12
((lp4641
g251
atRp4642
sbag3592
ag568
ag977
ag292
ag749
ag1152
ag4075
ag4409
ag4368
ag4330
ag4195
ag4584
ag1
(g8
g3
NtRp4643
(dp4644
g11
g12
((lp4645
I1
aI27
atRp4646
sg15
I11050
sg16
g12
((lp4647
g1
(g8
g3
NtRp4648
(dp4649
g11
g12
((lp4650
I27
atRp4651
sg15
I11885
sg16
g12
((ltRp4652
sg18
g12
((lp4653
g4643
atRp4654
sbag227
atRp4655
sg18
g12
((ltRp4656
sbag4522
ag4621
ag1
(g8
g3
NtRp4657
(dp4658
g11
g12
((lp4659
I1
aI29
atRp4660
sg15
I10625
sg16
g12
((lp4661
g227
ag1
(g8
g3
NtRp4662
(dp4663
g11
g12
((lp4664
I29
atRp4665
sg15
I10850
sg16
g12
((ltRp4666
sg18
g12
((lp4667
g4657
atRp4668
sbatRp4669
sg18
g12
((ltRp4670
sbag222
ag1
(g8
g3
NtRp4671
(dp4672
g11
g12
((lp4673
I1
aI31
atRp4674
sg15
I10825
sg16
g12
((lp4675
g1
(g8
g3
NtRp4676
(dp4677
g11
g12
((lp4678
I31
atRp4679
sg15
I10327
sg16
g12
((ltRp4680
sg18
g12
((lp4681
g4671
atRp4682
sbag227
atRp4683
sg18
g12
((ltRp4684
sbag1
(g8
g3
NtRp4685
(dp4686
g11
g12
((lp4687
I1
aI30
atRp4688
sg15
I10800
sg16
g12
((lp4689
g1
(g8
g3
NtRp4690
(dp4691
g11
g12
((lp4692
I30
atRp4693
sg15
I10579
sg16
g12
((ltRp4694
sg18
g12
((lp4695
g4685
atRp4696
sbag227
atRp4697
sg18
g12
((ltRp4698
sbag4442
ag280
ag393
ag1
(g8
g3
NtRp4699
(dp4700
g11
g12
((lp4701
I1
aI9
atRp4702
sg15
I34475
sg16
g12
((lp4703
g157
ag227
atRp4704
sg18
g12
((ltRp4705
sbag4272
ag761
ag616
ag4533
ag917
ag339
ag256
ag268
ag3947
ag374
atRp4706
sbatRp4707
sg18
g12
((lp4708
g912
ag4481
ag3280
ag1214
ag3248
ag2124
ag1226
ag2148
ag1238
ag2136
ag2378
atRp4709
sbag1207
ag3241
ag893
ag1243
ag2153
ag1267
ag211
ag4474
ag1195
ag1255
atRp4710
sbag146
atRp4711
sg18
g12
((lp4712
g206
ag900
ag2421
ag2452
ag2390
ag2378
atRp4713
sbag1255
atRp4714
sg18
g12
((lp4715
g2373
ag2397
ag2428
ag2459
atRp4716
sbag3016
ag3885
ag3610
ag2703
ag1346
ag1509
ag1390
ag1793
ag493
ag3930
ag4035
ag3182
ag1442
ag2254
ag194
ag1358
ag1334
ag3923
atRp4717
sbag187
ag1798
atRp4718
sg18
g12
((ltRp4719
sbag864
ag1111
ag1793
ag2160
ag1
(g8
g3
NtRp4720
(dp4721
g11
g12
((lp4722
I2
aI3
aI10
atRp4723
sg15
I21775
sg16
g12
((lp4724
g129
ag187
ag72
atRp4725
sg18
g12
((ltRp4726
sbag3546
ag3480
ag1533
ag1099
ag2175
ag3804
ag1123
ag3302
atRp4727
sbag163
atRp4728
sg18
g12
((ltRp4729
sbag2933
ag1159
atRp4730
sbag187
ag163
atRp4731
sg18
g12
((lp4732
g1528
ag2928
ag2940
atRp4733
sbag804
ag2193
ag1509
ag635
ag1473
ag1569
ag3825
ag182
ag1521
atRp4734
sbag3750
ag175
ag152
ag628
ag809
ag1207
ag1574
ag833
ag4699
ag616
atRp4735
sbag146
atRp4736
sg18
g12
((lp4737
g1509
ag1896
ag611
ag3517
ag3818
ag1485
atRp4738
sbag532
ag4503
ag362
ag303
ag510
ag1044
ag141
ag199
ag4095
ag773
ag3905
ag4489
ag4238
ag211
ag3615
ag280
ag1798
ag2617
ag1291
atRp4739
sbatRp4740
sg18
g12
((lp4741
g1039
ag780
ag2812
ag539
ag1286
ag1346
ag2390
ag599
ag2624
ag1485
ag2004
ag3622
ag136
ag310
ag3052
atRp4742
sbag1798
atRp4743
sg18
g12
((lp4744
g1788
ag1865
ag2862
atRp4745
sbag852
ag1111
ag1135
ag4720
ag124
ag1166
atRp4746
sbag84
ag117
atRp4747
sg18
g12
((lp4748
g3323
ag2833
ag1106
atRp4749
sbag1099
ag3804
ag2826
ag1805
atRp4750
sbag106
ag175
ag2153
ag187
ag1
(g8
g3
NtRp4751
(dp4752
g11
g12
((lp4753
I2
aI10
atRp4754
sg15
I28325
sg16
g12
((lp4755
g9
ag111
atRp4756
sg18
g12
((ltRp4757
sbag129
ag857
ag1152
ag1798
atRp4758
sbatRp4759
sg18
g12
((lp4760
g1147
ag1135
ag3546
ag1123
ag1843
atRp4761
sbag988
ag3727
ag785
ag3859
ag95
ag3570
ag761
ag3130
ag1243
ag773
ag2754
ag1654
ag797
ag809
atRp4762
sbag89
atRp4763
sg18
g12
((lp4764
g2497
ag2040
ag2076
ag2052
ag2064
ag1661
atRp4765
sbag628
ag3416
ag652
ag1267
ag4111
ag1303
ag3687
ag339
ag84
ag351
ag1291
ag688
ag117
ag327
ag1020
ag640
atRp4766
sbatRp4767
sg18
g12
((lp4768
g79
ag3346
ag737
ag1075
ag1027
ag124
ag1274
ag1286
ag322
ag725
ag1920
ag2292
ag2076
atRp4769
sbag640
ag72
atRp4770
sg18
g12
((lp4771
g1927
ag1341
ag1082
ag720
ag3323
ag2792
ag2326
ag2299
ag2071
ag1106
atRp4772
sbag551
ag1111
ag1426
ag2636
ag3004
ag1473
ag4720
ag792
ag876
ag1346
ag2319
ag1
(g8
g3
NtRp4773
(dp4774
g11
g12
((lp4775
I3
aI2
aI19
atRp4776
sg15
I11075
sg16
g12
((lp4777
g31
ag20
ag72
atRp4778
sg18
g12
((ltRp4779
sbag435
ag3770
ag423
ag4290
ag4213
ag67
ag447
ag4172
ag3995
ag4058
ag3973
ag3634
atRp4780
sbatRp4781
sg18
g12
((ltRp4782
sbag4416
atRp4783
sbag49
ag4409
atRp4784
sbatRp4785
sg18
g12
((lp4786
g67
ag4404
atRp4787
sbag129
ag4051
ag393
ag405
ag72
ag785
ag84
ag845
ag141
ag31
ag4206
ag699
ag544
ag1032
ag3627
ag730
ag452
ag1195
ag315
ag833
ag4357
ag4283
ag3966
atRp4788
sbag25
atRp4789
sg18
g12
((lp4790
g4160
ag4773
ag4172
ag4397
atRp4791
sbag42
ag20
ag268
ag4503
atRp4792
sbatRp4793
sg18
g12
((lp4794
g4773
ag4172
ag263
atRp4795
sbag3009
ag797
ag1008
ag4751
ag4540
ag4040
ag244
ag416
ag706
ag4295
ag4566
ag640
ag199
ag869
ag4014
ag3603
ag72
ag3916
ag467
ag1255
ag163
ag556
ag4577
ag4218
ag187
ag256
ag4380
ag60
ag4610
atRp4796
sbag36
ag146
ag89
ag227
ag216
ag157
ag111
ag693
ag297
ag982
ag526
ag3597
ag4045
ag356
ag3910
ag25
ag4277
ag4200
ag54
ag4362
ag410
ag4527
ag4571
ag4648
ag4615
ag4662
ag4690
ag4676
ag238
ag515
ag100
asS'_topLevel'
p4797
(lp4798
g2097
asb.