ccopy_reg
_reconstructor
p1
(ccis.frequents
Frequents
p2
c__builtin__
object
p3
NtRp4
(dp5
S'_singletons'
p6
(lp7
g1
(ccis.frequents
Node
p8
g3
NtRp9
(dp10
S'items'
p11
c__builtin__
set
p12
((lp13
I2
atRp14
sS'frequency'
p15
I89460
sS'parents'
p16
g12
((ltRp17
sS'children'
p18
g12
((lp19
g1
(g8
g3
NtRp20
(dp21
g11
g12
((lp22
I16
aI2
atRp23
sg15
I15075
sg16
g12
((lp24
g1
(g8
g3
NtRp25
(dp26
g11
g12
((lp27
I16
atRp28
sg15
I20163
sg16
g12
((ltRp29
sg18
g12
((lp30
g1
(g8
g3
NtRp31
(dp32
g11
g12
((lp33
I16
aI3
atRp34
sg15
I13050
sg16
g12
((lp35
g25
ag1
(g8
g3
NtRp36
(dp37
g11
g12
((lp38
I3
atRp39
sg15
I76272
sg16
g12
((ltRp40
sg18
g12
((lp41
g31
ag1
(g8
g3
NtRp42
(dp43
g11
g12
((lp44
I3
aI13
atRp45
sg15
I10375
sg16
g12
((lp46
g36
ag1
(g8
g3
NtRp47
(dp48
g11
g12
((lp49
I13
atRp50
sg15
I24819
sg16
g12
((ltRp51
sg18
g12
((lp52
g1
(g8
g3
NtRp53
(dp54
g11
g12
((lp55
I4
aI13
atRp56
sg15
I13200
sg16
g12
((lp57
g1
(g8
g3
NtRp58
(dp59
g11
g12
((lp60
I4
atRp61
sg15
I64835
sg16
g12
((ltRp62
sg18
g12
((lp63
g1
(g8
g3
NtRp64
(dp65
g11
g12
((lp66
I18
aI4
atRp67
sg15
I11750
sg16
g12
((lp68
g58
ag1
(g8
g3
NtRp69
(dp70
g11
g12
((lp71
I18
atRp72
sg15
I17963
sg16
g12
((ltRp73
sg18
g12
((lp74
g64
ag1
(g8
g3
NtRp75
(dp76
g11
g12
((lp77
I2
aI18
atRp78
sg15
I18875
sg16
g12
((lp79
g9
ag69
atRp80
sg18
g12
((lp81
g1
(g8
g3
NtRp82
(dp83
g11
g12
((lp84
I1
aI2
aI18
atRp85
sg15
I17700
sg16
g12
((lp86
g1
(g8
g3
NtRp87
(dp88
g11
g12
((lp89
I1
aI2
atRp90
sg15
I88850
sg16
g12
((lp91
g1
(g8
g3
NtRp92
(dp93
g11
g12
((lp94
I1
atRp95
sg15
I99316
sg16
g12
((ltRp96
sg18
g12
((lp97
g1
(g8
g3
NtRp98
(dp99
g11
g12
((lp100
I1
aI6
atRp101
sg15
I49650
sg16
g12
((lp102
g92
ag1
(g8
g3
NtRp103
(dp104
g11
g12
((lp105
I6
atRp106
sg15
I48664
sg16
g12
((ltRp107
sg18
g12
((lp108
g1
(g8
g3
NtRp109
(dp110
g11
g12
((lp111
I12
aI6
atRp112
sg15
I18500
sg16
g12
((lp113
g1
(g8
g3
NtRp114
(dp115
g11
g12
((lp116
I12
atRp117
sg15
I26474
sg16
g12
((ltRp118
sg18
g12
((lp119
g109
ag1
(g8
g3
NtRp120
(dp121
g11
g12
((lp122
I12
aI7
atRp123
sg15
I28075
sg16
g12
((lp124
g1
(g8
g3
NtRp125
(dp126
g11
g12
((lp127
I7
atRp128
sg15
I43039
sg16
g12
((ltRp129
sg18
g12
((lp130
g1
(g8
g3
NtRp131
(dp132
g11
g12
((lp133
I5
aI7
atRp134
sg15
I10075
sg16
g12
((lp135
g125
ag1
(g8
g3
NtRp136
(dp137
g11
g12
((lp138
I5
atRp139
sg15
I55474
sg16
g12
((ltRp140
sg18
g12
((lp141
g131
ag1
(g8
g3
NtRp142
(dp143
g11
g12
((lp144
I5
aI6
atRp145
sg15
I11750
sg16
g12
((lp146
g136
ag103
atRp147
sg18
g12
((lp148
g1
(g8
g3
NtRp149
(dp150
g11
g12
((lp151
I4
aI5
aI6
atRp152
sg15
I13775
sg16
g12
((lp153
g1
(g8
g3
NtRp154
(dp155
g11
g12
((lp156
I4
aI5
atRp157
sg15
I36075
sg16
g12
((lp158
g58
ag136
atRp159
sg18
g12
((lp160
g1
(g8
g3
NtRp161
(dp162
g11
g12
((lp163
I9
aI4
aI5
atRp164
sg15
I12550
sg16
g12
((lp165
g154
ag1
(g8
g3
NtRp166
(dp167
g11
g12
((lp168
I9
aI4
atRp169
sg15
I14225
sg16
g12
((lp170
g58
ag1
(g8
g3
NtRp171
(dp172
g11
g12
((lp173
I9
atRp174
sg15
I34609
sg16
g12
((ltRp175
sg18
g12
((lp176
g1
(g8
g3
NtRp177
(dp178
g11
g12
((lp179
I9
aI10
atRp180
sg15
I13175
sg16
g12
((lp181
g1
(g8
g3
NtRp182
(dp183
g11
g12
((lp184
I10
atRp185
sg15
I31741
sg16
g12
((ltRp186
sg18
g12
((lp187
g1
(g8
g3
NtRp188
(dp189
g11
g12
((lp190
I8
aI10
atRp191
sg15
I18975
sg16
g12
((lp192
g1
(g8
g3
NtRp193
(dp194
g11
g12
((lp195
I8
atRp196
sg15
I38305
sg16
g12
((ltRp197
sg18
g12
((lp198
g1
(g8
g3
NtRp199
(dp200
g11
g12
((lp201
I8
aI6
atRp202
sg15
I49575
sg16
g12
((lp203
g193
ag103
atRp204
sg18
g12
((lp205
g1
(g8
g3
NtRp206
(dp207
g11
g12
((lp208
I8
aI2
aI6
atRp209
sg15
I10000
sg16
g12
((lp210
g199
ag1
(g8
g3
NtRp211
(dp212
g11
g12
((lp213
I2
aI6
atRp214
sg15
I32975
sg16
g12
((lp215
g9
ag103
atRp216
sg18
g12
((lp217
g1
(g8
g3
NtRp218
(dp219
g11
g12
((lp220
I2
aI14
aI6
atRp221
sg15
I16025
sg16
g12
((lp222
g1
(g8
g3
NtRp223
(dp224
g11
g12
((lp225
I2
aI14
atRp226
sg15
I15325
sg16
g12
((lp227
g1
(g8
g3
NtRp228
(dp229
g11
g12
((lp230
I14
atRp231
sg15
I23061
sg16
g12
((ltRp232
sg18
g12
((lp233
g1
(g8
g3
NtRp234
(dp235
g11
g12
((lp236
I4
aI14
atRp237
sg15
I13500
sg16
g12
((lp238
g228
ag58
atRp239
sg18
g12
((lp240
g1
(g8
g3
NtRp241
(dp242
g11
g12
((lp243
I2
aI4
aI14
atRp244
sg15
I16025
sg16
g12
((lp245
g234
ag1
(g8
g3
NtRp246
(dp247
g11
g12
((lp248
I2
aI4
atRp249
sg15
I12350
sg16
g12
((lp250
g9
ag58
atRp251
sg18
g12
((lp252
g1
(g8
g3
NtRp253
(dp254
g11
g12
((lp255
I2
aI11
aI4
atRp256
sg15
I14800
sg16
g12
((lp257
g1
(g8
g3
NtRp258
(dp259
g11
g12
((lp260
I2
aI11
atRp261
sg15
I16125
sg16
g12
((lp262
g1
(g8
g3
NtRp263
(dp264
g11
g12
((lp265
I11
atRp266
sg15
I28601
sg16
g12
((ltRp267
sg18
g12
((lp268
g258
ag1
(g8
g3
NtRp269
(dp270
g11
g12
((lp271
I8
aI11
atRp272
sg15
I17100
sg16
g12
((lp273
g193
ag263
atRp274
sg18
g12
((lp275
g1
(g8
g3
NtRp276
(dp277
g11
g12
((lp278
I8
aI1
aI11
atRp279
sg15
I10275
sg16
g12
((lp280
g1
(g8
g3
NtRp281
(dp282
g11
g12
((lp283
I1
aI11
atRp284
sg15
I17250
sg16
g12
((lp285
g92
ag263
atRp286
sg18
g12
((lp287
g1
(g8
g3
NtRp288
(dp289
g11
g12
((lp290
I1
aI11
aI6
atRp291
sg15
I13650
sg16
g12
((lp292
g98
ag1
(g8
g3
NtRp293
(dp294
g11
g12
((lp295
I11
aI6
atRp296
sg15
I13800
sg16
g12
((lp297
g263
ag103
atRp298
sg18
g12
((lp299
g288
ag1
(g8
g3
NtRp300
(dp301
g11
g12
((lp302
I11
aI3
aI6
atRp303
sg15
I11675
sg16
g12
((lp304
g1
(g8
g3
NtRp305
(dp306
g11
g12
((lp307
I3
aI6
atRp308
sg15
I11400
sg16
g12
((lp309
g36
ag103
atRp310
sg18
g12
((lp311
g1
(g8
g3
NtRp312
(dp313
g11
g12
((lp314
I2
aI3
aI6
atRp315
sg15
I17150
sg16
g12
((lp316
g305
ag211
ag1
(g8
g3
NtRp317
(dp318
g11
g12
((lp319
I2
aI3
atRp320
sg15
I49700
sg16
g12
((lp321
g9
ag36
atRp322
sg18
g12
((lp323
g1
(g8
g3
NtRp324
(dp325
g11
g12
((lp326
I2
aI3
aI12
atRp327
sg15
I10925
sg16
g12
((lp328
g1
(g8
g3
NtRp329
(dp330
g11
g12
((lp331
I3
aI12
atRp332
sg15
I10850
sg16
g12
((lp333
g36
ag114
atRp334
sg18
g12
((lp335
g1
(g8
g3
NtRp336
(dp337
g11
g12
((lp338
I3
aI12
aI6
atRp339
sg15
I22575
sg16
g12
((lp340
g329
ag305
ag109
atRp341
sg18
g12
((ltRp342
sbag1
(g8
g3
NtRp343
(dp344
g11
g12
((lp345
I1
aI3
aI12
atRp346
sg15
I21150
sg16
g12
((lp347
g329
ag1
(g8
g3
NtRp348
(dp349
g11
g12
((lp350
I1
aI3
atRp351
sg15
I75800
sg16
g12
((lp352
g92
ag36
atRp353
sg18
g12
((lp354
g1
(g8
g3
NtRp355
(dp356
g11
g12
((lp357
I1
aI18
aI3
atRp358
sg15
I10550
sg16
g12
((lp359
g348
ag1
(g8
g3
NtRp360
(dp361
g11
g12
((lp362
I18
aI3
atRp363
sg15
I21200
sg16
g12
((lp364
g36
ag69
atRp365
sg18
g12
((lp366
g1
(g8
g3
NtRp367
(dp368
g11
g12
((lp369
I18
aI3
aI2
atRp370
sg15
I19800
sg16
g12
((lp371
g317
ag75
ag360
atRp372
sg18
g12
((lp373
g1
(g8
g3
NtRp374
(dp375
g11
g12
((lp376
I1
aI18
aI3
aI2
atRp377
sg15
I10150
sg16
g12
((lp378
g355
ag82
ag1
(g8
g3
NtRp379
(dp380
g11
g12
((lp381
I1
aI2
aI3
atRp382
sg15
I15125
sg16
g12
((lp383
g87
ag348
ag317
atRp384
sg18
g12
((lp385
g1
(g8
g3
NtRp386
(dp387
g11
g12
((lp388
I1
aI2
aI3
aI5
atRp389
sg15
I12350
sg16
g12
((lp390
g1
(g8
g3
NtRp391
(dp392
g11
g12
((lp393
I1
aI3
aI5
atRp394
sg15
I16525
sg16
g12
((lp395
g1
(g8
g3
NtRp396
(dp397
g11
g12
((lp398
I3
aI5
atRp399
sg15
I14125
sg16
g12
((lp400
g36
ag136
atRp401
sg18
g12
((lp402
g1
(g8
g3
NtRp403
(dp404
g11
g12
((lp405
I3
aI5
aI13
atRp406
sg15
I12050
sg16
g12
((lp407
g1
(g8
g3
NtRp408
(dp409
g11
g12
((lp410
I13
aI5
atRp411
sg15
I10850
sg16
g12
((lp412
g136
ag47
atRp413
sg18
g12
((lp414
g1
(g8
g3
NtRp415
(dp416
g11
g12
((lp417
I2
aI5
aI13
atRp418
sg15
I18425
sg16
g12
((lp419
g408
ag1
(g8
g3
NtRp420
(dp421
g11
g12
((lp422
I2
aI13
atRp423
sg15
I21225
sg16
g12
((lp424
g9
ag47
atRp425
sg18
g12
((lp426
g415
ag1
(g8
g3
NtRp427
(dp428
g11
g12
((lp429
I1
aI2
aI13
atRp430
sg15
I13800
sg16
g12
((lp431
g87
ag420
ag1
(g8
g3
NtRp432
(dp433
g11
g12
((lp434
I1
aI13
atRp435
sg15
I12000
sg16
g12
((lp436
g92
ag47
atRp437
sg18
g12
((lp438
g1
(g8
g3
NtRp439
(dp440
g11
g12
((lp441
I1
aI13
aI6
atRp442
sg15
I10975
sg16
g12
((lp443
g98
ag1
(g8
g3
NtRp444
(dp445
g11
g12
((lp446
I13
aI6
atRp447
sg15
I13475
sg16
g12
((lp448
g47
ag103
atRp449
sg18
g12
((lp450
g439
ag1
(g8
g3
NtRp451
(dp452
g11
g12
((lp453
I2
aI13
aI6
atRp454
sg15
I10775
sg16
g12
((lp455
g211
ag420
ag444
atRp456
sg18
g12
((lp457
g1
(g8
g3
NtRp458
(dp459
g11
g12
((lp460
I1
aI2
aI13
aI6
atRp461
sg15
I14050
sg16
g12
((lp462
g1
(g8
g3
NtRp463
(dp464
g11
g12
((lp465
I1
aI2
aI6
atRp466
sg15
I10175
sg16
g12
((lp467
g98
ag211
ag87
atRp468
sg18
g12
((lp469
g458
ag1
(g8
g3
NtRp470
(dp471
g11
g12
((lp472
I1
aI2
aI10
aI6
atRp473
sg15
I13625
sg16
g12
((lp474
g463
ag1
(g8
g3
NtRp475
(dp476
g11
g12
((lp477
I1
aI2
aI10
atRp478
sg15
I10400
sg16
g12
((lp479
g87
ag1
(g8
g3
NtRp480
(dp481
g11
g12
((lp482
I1
aI10
atRp483
sg15
I17800
sg16
g12
((lp484
g92
ag182
atRp485
sg18
g12
((lp486
g1
(g8
g3
NtRp487
(dp488
g11
g12
((lp489
I1
aI10
aI6
atRp490
sg15
I13650
sg16
g12
((lp491
g98
ag480
ag1
(g8
g3
NtRp492
(dp493
g11
g12
((lp494
I10
aI6
atRp495
sg15
I18800
sg16
g12
((lp496
g182
ag103
atRp497
sg18
g12
((lp498
g1
(g8
g3
NtRp499
(dp500
g11
g12
((lp501
I2
aI10
aI6
atRp502
sg15
I20550
sg16
g12
((lp503
g1
(g8
g3
NtRp504
(dp505
g11
g12
((lp506
I2
aI10
atRp507
sg15
I10950
sg16
g12
((lp508
g182
ag9
atRp509
sg18
g12
((lp510
g1
(g8
g3
NtRp511
(dp512
g11
g12
((lp513
I9
aI2
aI10
atRp514
sg15
I15300
sg16
g12
((lp515
g504
ag1
(g8
g3
NtRp516
(dp517
g11
g12
((lp518
I9
aI2
atRp519
sg15
I10025
sg16
g12
((lp520
g9
ag171
atRp521
sg18
g12
((lp522
g1
(g8
g3
NtRp523
(dp524
g11
g12
((lp525
I9
aI2
aI4
atRp526
sg15
I19000
sg16
g12
((lp527
g516
ag246
ag166
atRp528
sg18
g12
((lp529
g1
(g8
g3
NtRp530
(dp531
g11
g12
((lp532
I9
aI2
aI4
aI5
atRp533
sg15
I23875
sg16
g12
((lp534
g1
(g8
g3
NtRp535
(dp536
g11
g12
((lp537
I2
aI4
aI5
atRp538
sg15
I18525
sg16
g12
((lp539
g154
ag246
ag1
(g8
g3
NtRp540
(dp541
g11
g12
((lp542
I2
aI5
atRp543
sg15
I10225
sg16
g12
((lp544
g9
ag136
atRp545
sg18
g12
((lp546
g1
(g8
g3
NtRp547
(dp548
g11
g12
((lp549
I1
aI2
aI5
atRp550
sg15
I10000
sg16
g12
((lp551
g87
ag1
(g8
g3
NtRp552
(dp553
g11
g12
((lp554
I1
aI5
atRp555
sg15
I55600
sg16
g12
((lp556
g92
ag136
atRp557
sg18
g12
((lp558
g1
(g8
g3
NtRp559
(dp560
g11
g12
((lp561
I1
aI5
aI7
atRp562
sg15
I12800
sg16
g12
((lp563
g131
ag552
ag1
(g8
g3
NtRp564
(dp565
g11
g12
((lp566
I1
aI7
atRp567
sg15
I43500
sg16
g12
((lp568
g92
ag125
atRp569
sg18
g12
((lp570
g1
(g8
g3
NtRp571
(dp572
g11
g12
((lp573
I1
aI11
aI7
atRp574
sg15
I11800
sg16
g12
((lp575
g1
(g8
g3
NtRp576
(dp577
g11
g12
((lp578
I11
aI7
atRp579
sg15
I11750
sg16
g12
((lp580
g263
ag125
atRp581
sg18
g12
((lp582
g1
(g8
g3
NtRp583
(dp584
g11
g12
((lp585
I11
aI3
aI7
atRp586
sg15
I11950
sg16
g12
((lp587
g576
ag1
(g8
g3
NtRp588
(dp589
g11
g12
((lp590
I3
aI7
atRp591
sg15
I17125
sg16
g12
((lp592
g125
ag36
atRp593
sg18
g12
((lp594
g1
(g8
g3
NtRp595
(dp596
g11
g12
((lp597
I3
aI4
aI7
atRp598
sg15
I15200
sg16
g12
((lp599
g1
(g8
g3
NtRp600
(dp601
g11
g12
((lp602
I3
aI4
atRp603
sg15
I14925
sg16
g12
((lp604
g36
ag58
atRp605
sg18
g12
((lp606
g1
(g8
g3
NtRp607
(dp608
g11
g12
((lp609
I10
aI3
aI4
atRp610
sg15
I10350
sg16
g12
((lp611
g600
ag1
(g8
g3
NtRp612
(dp613
g11
g12
((lp614
I10
aI3
atRp615
sg15
I16625
sg16
g12
((lp616
g182
ag36
atRp617
sg18
g12
((lp618
g1
(g8
g3
NtRp619
(dp620
g11
g12
((lp621
I2
aI3
aI10
atRp622
sg15
I10200
sg16
g12
((lp623
g504
ag612
ag317
atRp624
sg18
g12
((lp625
g1
(g8
g3
NtRp626
(dp627
g11
g12
((lp628
I2
aI3
aI4
aI10
atRp629
sg15
I13875
sg16
g12
((lp630
g619
ag607
ag1
(g8
g3
NtRp631
(dp632
g11
g12
((lp633
I2
aI3
aI4
atRp634
sg15
I22575
sg16
g12
((lp635
g600
ag246
ag317
atRp636
sg18
g12
((lp637
g626
ag1
(g8
g3
NtRp638
(dp639
g11
g12
((lp640
I9
aI2
aI3
aI4
atRp641
sg15
I13300
sg16
g12
((lp642
g523
ag1
(g8
g3
NtRp643
(dp644
g11
g12
((lp645
I9
aI3
aI4
atRp646
sg15
I14075
sg16
g12
((lp647
g600
ag166
ag1
(g8
g3
NtRp648
(dp649
g11
g12
((lp650
I9
aI3
atRp651
sg15
I11150
sg16
g12
((lp652
g36
ag171
atRp653
sg18
g12
((lp654
g1
(g8
g3
NtRp655
(dp656
g11
g12
((lp657
I8
aI9
aI3
atRp658
sg15
I33950
sg16
g12
((lp659
g1
(g8
g3
NtRp660
(dp661
g11
g12
((lp662
I8
aI9
atRp663
sg15
I18625
sg16
g12
((lp664
g193
ag171
atRp665
sg18
g12
((lp666
g1
(g8
g3
NtRp667
(dp668
g11
g12
((lp669
I8
aI9
aI2
atRp670
sg15
I21025
sg16
g12
((lp671
g1
(g8
g3
NtRp672
(dp673
g11
g12
((lp674
I8
aI2
atRp675
sg15
I67375
sg16
g12
((lp676
g193
ag9
atRp677
sg18
g12
((lp678
g1
(g8
g3
NtRp679
(dp680
g11
g12
((lp681
I8
aI2
aI4
atRp682
sg15
I13925
sg16
g12
((lp683
g1
(g8
g3
NtRp684
(dp685
g11
g12
((lp686
I8
aI4
atRp687
sg15
I38650
sg16
g12
((lp688
g193
ag58
atRp689
sg18
g12
((lp690
g1
(g8
g3
NtRp691
(dp692
g11
g12
((lp693
I8
aI4
aI5
atRp694
sg15
I25800
sg16
g12
((lp695
g154
ag1
(g8
g3
NtRp696
(dp697
g11
g12
((lp698
I8
aI5
atRp699
sg15
I58275
sg16
g12
((lp700
g193
ag136
atRp701
sg18
g12
((lp702
g1
(g8
g3
NtRp703
(dp704
g11
g12
((lp705
I8
aI1
aI5
atRp706
sg15
I18500
sg16
g12
((lp707
g552
ag1
(g8
g3
NtRp708
(dp709
g11
g12
((lp710
I8
aI1
atRp711
sg15
I15875
sg16
g12
((lp712
g92
ag193
atRp713
sg18
g12
((lp714
g1
(g8
g3
NtRp715
(dp716
g11
g12
((lp717
I8
aI1
aI10
atRp718
sg15
I13950
sg16
g12
((lp719
g188
ag708
ag480
atRp720
sg18
g12
((lp721
g1
(g8
g3
NtRp722
(dp723
g11
g12
((lp724
I8
aI1
aI2
aI10
atRp725
sg15
I16350
sg16
g12
((lp726
g475
ag1
(g8
g3
NtRp727
(dp728
g11
g12
((lp729
I8
aI2
aI10
atRp730
sg15
I25250
sg16
g12
((lp731
g504
ag188
ag672
atRp732
sg18
g12
((lp733
g722
atRp734
sbag1
(g8
g3
NtRp735
(dp736
g11
g12
((lp737
I8
aI1
aI2
atRp738
sg15
I15825
sg16
g12
((lp739
g87
ag708
ag672
atRp740
sg18
g12
((lp741
g1
(g8
g3
NtRp742
(dp743
g11
g12
((lp744
I8
aI1
aI2
aI7
atRp745
sg15
I10050
sg16
g12
((lp746
g1
(g8
g3
NtRp747
(dp748
g11
g12
((lp749
I8
aI2
aI7
atRp750
sg15
I22875
sg16
g12
((lp751
g1
(g8
g3
NtRp752
(dp753
g11
g12
((lp754
I2
aI7
atRp755
sg15
I37550
sg16
g12
((lp756
g125
ag9
atRp757
sg18
g12
((lp758
g1
(g8
g3
NtRp759
(dp760
g11
g12
((lp761
I2
aI5
aI7
atRp762
sg15
I15275
sg16
g12
((lp763
g131
ag752
ag540
atRp764
sg18
g12
((lp765
g1
(g8
g3
NtRp766
(dp767
g11
g12
((lp768
I2
aI4
aI5
aI7
atRp769
sg15
I15850
sg16
g12
((lp770
g1
(g8
g3
NtRp771
(dp772
g11
g12
((lp773
I4
aI5
aI7
atRp774
sg15
I15550
sg16
g12
((lp775
g154
ag1
(g8
g3
NtRp776
(dp777
g11
g12
((lp778
I4
aI7
atRp779
sg15
I28750
sg16
g12
((lp780
g125
ag58
atRp781
sg18
g12
((lp782
g595
ag771
ag1
(g8
g3
NtRp783
(dp784
g11
g12
((lp785
I4
aI6
aI7
atRp786
sg15
I10450
sg16
g12
((lp787
g1
(g8
g3
NtRp788
(dp789
g11
g12
((lp790
I6
aI7
atRp791
sg15
I16875
sg16
g12
((lp792
g125
ag103
atRp793
sg18
g12
((lp794
g1
(g8
g3
NtRp795
(dp796
g11
g12
((lp797
I3
aI6
aI7
atRp798
sg15
I16475
sg16
g12
((lp799
g305
ag588
ag788
atRp800
sg18
g12
((lp801
g1
(g8
g3
NtRp802
(dp803
g11
g12
((lp804
I1
aI3
aI6
aI7
atRp805
sg15
I25125
sg16
g12
((lp806
g1
(g8
g3
NtRp807
(dp808
g11
g12
((lp809
I1
aI3
aI6
atRp810
sg15
I21150
sg16
g12
((lp811
g98
ag348
ag305
atRp812
sg18
g12
((lp813
g1
(g8
g3
NtRp814
(dp815
g11
g12
((lp816
I1
aI10
aI3
aI6
atRp817
sg15
I15150
sg16
g12
((lp818
g1
(g8
g3
NtRp819
(dp820
g11
g12
((lp821
I1
aI10
aI3
atRp822
sg15
I12700
sg16
g12
((lp823
g612
ag348
ag480
atRp824
sg18
g12
((lp825
g1
(g8
g3
NtRp826
(dp827
g11
g12
((lp828
I1
aI2
aI3
aI10
atRp829
sg15
I10025
sg16
g12
((lp830
g619
ag475
ag379
ag819
atRp831
sg18
g12
((lp832
g1
(g8
g3
NtRp833
(dp834
g11
g12
((lp835
I1
aI2
aI3
aI10
aI6
atRp836
sg15
I10375
sg16
g12
((lp837
g1
(g8
g3
NtRp838
(dp839
g11
g12
((lp840
I2
aI3
aI10
aI6
atRp841
sg15
I16750
sg16
g12
((lp842
g499
ag1
(g8
g3
NtRp843
(dp844
g11
g12
((lp845
I10
aI3
aI6
atRp846
sg15
I10375
sg16
g12
((lp847
g305
ag612
ag492
atRp848
sg18
g12
((lp849
g814
ag838
atRp850
sbag312
ag619
atRp851
sg18
g12
((lp852
g833
atRp853
sbag470
ag814
ag1
(g8
g3
NtRp854
(dp855
g11
g12
((lp856
I1
aI2
aI3
aI6
atRp857
sg15
I10025
sg16
g12
((lp858
g463
ag379
ag312
ag807
atRp859
sg18
g12
((lp860
g1
(g8
g3
NtRp861
(dp862
g11
g12
((lp863
I1
aI2
aI3
aI4
aI6
atRp864
sg15
I18550
sg16
g12
((lp865
g1
(g8
g3
NtRp866
(dp867
g11
g12
((lp868
I1
aI2
aI4
aI6
atRp869
sg15
I11275
sg16
g12
((lp870
g1
(g8
g3
NtRp871
(dp872
g11
g12
((lp873
I2
aI4
aI6
atRp874
sg15
I11025
sg16
g12
((lp875
g211
ag1
(g8
g3
NtRp876
(dp877
g11
g12
((lp878
I4
aI6
atRp879
sg15
I32675
sg16
g12
((lp880
g58
ag103
atRp881
sg18
g12
((lp882
g871
ag149
ag1
(g8
g3
NtRp883
(dp884
g11
g12
((lp885
I9
aI4
aI6
atRp886
sg15
I12375
sg16
g12
((lp887
g1
(g8
g3
NtRp888
(dp889
g11
g12
((lp890
I9
aI6
atRp891
sg15
I19650
sg16
g12
((lp892
g171
ag103
atRp893
sg18
g12
((lp894
g883
ag1
(g8
g3
NtRp895
(dp896
g11
g12
((lp897
I1
aI6
aI9
atRp898
sg15
I13425
sg16
g12
((lp899
g98
ag1
(g8
g3
NtRp900
(dp901
g11
g12
((lp902
I1
aI9
atRp903
sg15
I34650
sg16
g12
((lp904
g92
ag171
atRp905
sg18
g12
((lp906
g1
(g8
g3
NtRp907
(dp908
g11
g12
((lp909
I1
aI3
aI9
atRp910
sg15
I12125
sg16
g12
((lp911
g648
ag348
ag900
atRp912
sg18
g12
((lp913
g1
(g8
g3
NtRp914
(dp915
g11
g12
((lp916
I7
aI1
aI3
aI9
atRp917
sg15
I14625
sg16
g12
((lp918
g1
(g8
g3
NtRp919
(dp920
g11
g12
((lp921
I1
aI3
aI7
atRp922
sg15
I17075
sg16
g12
((lp923
g588
ag564
ag348
atRp924
sg18
g12
((lp925
g1
(g8
g3
NtRp926
(dp927
g11
g12
((lp928
I8
aI1
aI3
aI7
atRp929
sg15
I18650
sg16
g12
((lp930
g919
ag1
(g8
g3
NtRp931
(dp932
g11
g12
((lp933
I8
aI1
aI7
atRp934
sg15
I16225
sg16
g12
((lp935
g564
ag708
ag1
(g8
g3
NtRp936
(dp937
g11
g12
((lp938
I8
aI7
atRp939
sg15
I42200
sg16
g12
((lp940
g193
ag125
atRp941
sg18
g12
((lp942
g747
ag1
(g8
g3
NtRp943
(dp944
g11
g12
((lp945
I8
aI4
aI7
atRp946
sg15
I17725
sg16
g12
((lp947
g684
ag776
ag936
atRp948
sg18
g12
((lp949
g1
(g8
g3
NtRp950
(dp951
g11
g12
((lp952
I8
aI1
aI4
aI7
atRp953
sg15
I11425
sg16
g12
((lp954
g931
ag1
(g8
g3
NtRp955
(dp956
g11
g12
((lp957
I8
aI1
aI4
atRp958
sg15
I13950
sg16
g12
((lp959
g684
ag1
(g8
g3
NtRp960
(dp961
g11
g12
((lp962
I1
aI4
atRp963
sg15
I65450
sg16
g12
((lp964
g92
ag58
atRp965
sg18
g12
((lp966
g1
(g8
g3
NtRp967
(dp968
g11
g12
((lp969
I1
aI4
aI17
atRp970
sg15
I49300
sg16
g12
((lp971
g1
(g8
g3
NtRp972
(dp973
g11
g12
((lp974
I1
aI17
atRp975
sg15
I31000
sg16
g12
((lp976
g92
ag1
(g8
g3
NtRp977
(dp978
g11
g12
((lp979
I17
atRp980
sg15
I19016
sg16
g12
((ltRp981
sg18
g12
((lp982
g972
ag1
(g8
g3
NtRp983
(dp984
g11
g12
((lp985
I17
aI2
atRp986
sg15
I12500
sg16
g12
((lp987
g9
ag977
atRp988
sg18
g12
((lp989
g1
(g8
g3
NtRp990
(dp991
g11
g12
((lp992
I17
aI2
aI3
atRp993
sg15
I14000
sg16
g12
((lp994
g317
ag983
ag1
(g8
g3
NtRp995
(dp996
g11
g12
((lp997
I17
aI3
atRp998
sg15
I11725
sg16
g12
((lp999
g36
ag977
atRp1000
sg18
g12
((lp1001
g990
ag1
(g8
g3
NtRp1002
(dp1003
g11
g12
((lp1004
I1
aI3
aI17
atRp1005
sg15
I22300
sg16
g12
((lp1006
g972
ag348
ag995
atRp1007
sg18
g12
((lp1008
g1
(g8
g3
NtRp1009
(dp1010
g11
g12
((lp1011
I1
aI2
aI3
aI17
atRp1012
sg15
I10725
sg16
g12
((lp1013
g990
ag379
ag1002
ag1
(g8
g3
NtRp1014
(dp1015
g11
g12
((lp1016
I1
aI2
aI17
atRp1017
sg15
I15500
sg16
g12
((lp1018
g87
ag983
ag972
atRp1019
sg18
g12
((lp1020
g1009
ag1
(g8
g3
NtRp1021
(dp1022
g11
g12
((lp1023
I1
aI2
aI4
aI17
atRp1024
sg15
I11025
sg16
g12
((lp1025
g1
(g8
g3
NtRp1026
(dp1027
g11
g12
((lp1028
I1
aI2
aI4
atRp1029
sg15
I11025
sg16
g12
((lp1030
g87
ag960
ag246
atRp1031
sg18
g12
((lp1032
g866
ag1021
ag1
(g8
g3
NtRp1033
(dp1034
g11
g12
((lp1035
I1
aI2
aI4
aI9
atRp1036
sg15
I10350
sg16
g12
((lp1037
g1026
ag1
(g8
g3
NtRp1038
(dp1039
g11
g12
((lp1040
I1
aI2
aI9
atRp1041
sg15
I10875
sg16
g12
((lp1042
g87
ag900
ag516
atRp1043
sg18
g12
((lp1044
g1033
ag1
(g8
g3
NtRp1045
(dp1046
g11
g12
((lp1047
I1
aI2
aI3
aI9
atRp1048
sg15
I10250
sg16
g12
((lp1049
g1
(g8
g3
NtRp1050
(dp1051
g11
g12
((lp1052
I9
aI2
aI3
atRp1053
sg15
I14325
sg16
g12
((lp1054
g317
ag516
ag648
atRp1055
sg18
g12
((lp1056
g1
(g8
g3
NtRp1057
(dp1058
g11
g12
((lp1059
I9
aI2
aI3
aI7
atRp1060
sg15
I12050
sg16
g12
((lp1061
g1050
ag1
(g8
g3
NtRp1062
(dp1063
g11
g12
((lp1064
I9
aI3
aI7
atRp1065
sg15
I16675
sg16
g12
((lp1066
g1
(g8
g3
NtRp1067
(dp1068
g11
g12
((lp1069
I9
aI7
atRp1070
sg15
I22675
sg16
g12
((lp1071
g125
ag171
atRp1072
sg18
g12
((lp1073
g1
(g8
g3
NtRp1074
(dp1075
g11
g12
((lp1076
I9
aI2
aI7
atRp1077
sg15
I10200
sg16
g12
((lp1078
g752
ag516
ag1067
atRp1079
sg18
g12
((lp1080
g1057
ag1
(g8
g3
NtRp1081
(dp1082
g11
g12
((lp1083
I1
aI2
aI7
aI9
atRp1084
sg15
I11925
sg16
g12
((lp1085
g1
(g8
g3
NtRp1086
(dp1087
g11
g12
((lp1088
I1
aI2
aI7
atRp1089
sg15
I10550
sg16
g12
((lp1090
g87
ag564
ag752
atRp1091
sg18
g12
((lp1092
g742
ag1
(g8
g3
NtRp1093
(dp1094
g11
g12
((lp1095
I1
aI2
aI5
aI7
atRp1096
sg15
I14125
sg16
g12
((lp1097
g1086
ag547
ag759
ag559
atRp1098
sg18
g12
((lp1099
g1
(g8
g3
NtRp1100
(dp1101
g11
g12
((lp1102
I1
aI2
aI4
aI5
aI7
atRp1103
sg15
I14800
sg16
g12
((lp1104
g766
ag1093
ag1
(g8
g3
NtRp1105
(dp1106
g11
g12
((lp1107
I1
aI4
aI5
aI7
atRp1108
sg15
I11200
sg16
g12
((lp1109
g771
ag559
ag1
(g8
g3
NtRp1110
(dp1111
g11
g12
((lp1112
I1
aI4
aI7
atRp1113
sg15
I12300
sg16
g12
((lp1114
g564
ag776
ag960
atRp1115
sg18
g12
((lp1116
g1
(g8
g3
NtRp1117
(dp1118
g11
g12
((lp1119
I1
aI4
aI6
aI7
atRp1120
sg15
I10125
sg16
g12
((lp1121
g1
(g8
g3
NtRp1122
(dp1123
g11
g12
((lp1124
I1
aI6
aI7
atRp1125
sg15
I11475
sg16
g12
((lp1126
g98
ag564
ag788
atRp1127
sg18
g12
((lp1128
g1
(g8
g3
NtRp1129
(dp1130
g11
g12
((lp1131
I1
aI5
aI6
aI7
atRp1132
sg15
I16175
sg16
g12
((lp1133
g1122
ag1
(g8
g3
NtRp1134
(dp1135
g11
g12
((lp1136
I5
aI6
aI7
atRp1137
sg15
I13650
sg16
g12
((lp1138
g131
ag142
ag788
atRp1139
sg18
g12
((lp1140
g1
(g8
g3
NtRp1141
(dp1142
g11
g12
((lp1143
I2
aI5
aI6
aI7
atRp1144
sg15
I20500
sg16
g12
((lp1145
g1134
ag1
(g8
g3
NtRp1146
(dp1147
g11
g12
((lp1148
I2
aI6
aI7
atRp1149
sg15
I49475
sg16
g12
((lp1150
g752
ag211
ag788
atRp1151
sg18
g12
((lp1152
g1
(g8
g3
NtRp1153
(dp1154
g11
g12
((lp1155
I2
aI4
aI6
aI7
atRp1156
sg15
I12000
sg16
g12
((lp1157
g871
ag783
ag1
(g8
g3
NtRp1158
(dp1159
g11
g12
((lp1160
I2
aI4
aI7
atRp1161
sg15
I23150
sg16
g12
((lp1162
g752
ag776
ag246
atRp1163
sg18
g12
((lp1164
g1153
ag766
ag1
(g8
g3
NtRp1165
(dp1166
g11
g12
((lp1167
I1
aI2
aI4
aI7
atRp1168
sg15
I10375
sg16
g12
((lp1169
g1086
ag1158
ag1110
ag1026
atRp1170
sg18
g12
((lp1171
g1
(g8
g3
NtRp1172
(dp1173
g11
g12
((lp1174
I1
aI2
aI4
aI6
aI7
atRp1175
sg15
I11750
sg16
g12
((lp1176
g1153
ag866
ag1
(g8
g3
NtRp1177
(dp1178
g11
g12
((lp1179
I1
aI2
aI6
aI7
atRp1180
sg15
I10225
sg16
g12
((lp1181
g463
ag1122
ag1146
ag1086
atRp1182
sg18
g12
((lp1183
g1172
ag1
(g8
g3
NtRp1184
(dp1185
g11
g12
((lp1186
I1
aI2
aI3
aI6
aI7
atRp1187
sg15
I10375
sg16
g12
((lp1188
g1
(g8
g3
NtRp1189
(dp1190
g11
g12
((lp1191
I1
aI2
aI3
aI7
atRp1192
sg15
I12525
sg16
g12
((lp1193
g1086
ag379
ag1
(g8
g3
NtRp1194
(dp1195
g11
g12
((lp1196
I2
aI3
aI7
atRp1197
sg15
I10050
sg16
g12
((lp1198
g752
ag588
ag317
atRp1199
sg18
g12
((lp1200
g1
(g8
g3
NtRp1201
(dp1202
g11
g12
((lp1203
I8
aI2
aI3
aI7
atRp1204
sg15
I12250
sg16
g12
((lp1205
g747
ag1
(g8
g3
NtRp1206
(dp1207
g11
g12
((lp1208
I8
aI2
aI3
atRp1209
sg15
I11225
sg16
g12
((lp1210
g317
ag1
(g8
g3
NtRp1211
(dp1212
g11
g12
((lp1213
I8
aI3
atRp1214
sg15
I43800
sg16
g12
((lp1215
g193
ag36
atRp1216
sg18
g12
((lp1217
g655
ag1
(g8
g3
NtRp1218
(dp1219
g11
g12
((lp1220
I8
aI1
aI3
atRp1221
sg15
I24650
sg16
g12
((lp1222
g348
ag708
ag1211
atRp1223
sg18
g12
((lp1224
g926
ag1
(g8
g3
NtRp1225
(dp1226
g11
g12
((lp1227
I8
aI1
aI3
aI6
atRp1228
sg15
I23600
sg16
g12
((lp1229
g807
ag1
(g8
g3
NtRp1230
(dp1231
g11
g12
((lp1232
I8
aI3
aI6
atRp1233
sg15
I30925
sg16
g12
((lp1234
g305
ag1211
ag199
atRp1235
sg18
g12
((lp1236
g1
(g8
g3
NtRp1237
(dp1238
g11
g12
((lp1239
I8
aI2
aI3
aI6
atRp1240
sg15
I13925
sg16
g12
((lp1241
g206
ag1206
ag312
ag1230
atRp1242
sg18
g12
((lp1243
g1
(g8
g3
NtRp1244
(dp1245
g11
g12
((lp1246
I8
aI1
aI2
aI3
aI6
atRp1247
sg15
I10100
sg16
g12
((lp1248
g1225
ag1
(g8
g3
NtRp1249
(dp1250
g11
g12
((lp1251
I8
aI1
aI2
aI6
atRp1252
sg15
I13625
sg16
g12
((lp1253
g206
ag463
ag1
(g8
g3
NtRp1254
(dp1255
g11
g12
((lp1256
I8
aI1
aI6
atRp1257
sg15
I22100
sg16
g12
((lp1258
g98
ag708
ag199
atRp1259
sg18
g12
((lp1260
g1225
ag1249
ag1
(g8
g3
NtRp1261
(dp1262
g11
g12
((lp1263
I8
aI1
aI5
aI6
atRp1264
sg15
I21250
sg16
g12
((lp1265
g703
ag1
(g8
g3
NtRp1266
(dp1267
g11
g12
((lp1268
I8
aI5
aI6
atRp1269
sg15
I10975
sg16
g12
((lp1270
g199
ag142
ag696
atRp1271
sg18
g12
((lp1272
g1261
atRp1273
sbag1254
ag1
(g8
g3
NtRp1274
(dp1275
g11
g12
((lp1276
I1
aI5
aI6
atRp1277
sg15
I13775
sg16
g12
((lp1278
g98
ag552
ag142
atRp1279
sg18
g12
((lp1280
g1
(g8
g3
NtRp1281
(dp1282
g11
g12
((lp1283
I1
aI2
aI5
aI6
atRp1284
sg15
I10275
sg16
g12
((lp1285
g463
ag1
(g8
g3
NtRp1286
(dp1287
g11
g12
((lp1288
I2
aI5
aI6
atRp1289
sg15
I31950
sg16
g12
((lp1290
g540
ag142
ag211
atRp1291
sg18
g12
((lp1292
g1
(g8
g3
NtRp1293
(dp1294
g11
g12
((lp1295
I2
aI4
aI5
aI6
atRp1296
sg15
I13450
sg16
g12
((lp1297
g871
ag1286
ag149
ag535
atRp1298
sg18
g12
((lp1299
g1
(g8
g3
NtRp1300
(dp1301
g11
g12
((lp1302
I1
aI2
aI4
aI5
aI6
atRp1303
sg15
I13775
sg16
g12
((lp1304
g1293
ag1281
ag1
(g8
g3
NtRp1305
(dp1306
g11
g12
((lp1307
I1
aI2
aI4
aI5
atRp1308
sg15
I10375
sg16
g12
((lp1309
g1026
ag547
ag1
(g8
g3
NtRp1310
(dp1311
g11
g12
((lp1312
I1
aI4
aI5
atRp1313
sg15
I15125
sg16
g12
((lp1314
g154
ag960
ag552
atRp1315
sg18
g12
((lp1316
g1
(g8
g3
NtRp1317
(dp1318
g11
g12
((lp1319
I1
aI4
aI5
aI9
atRp1320
sg15
I10300
sg16
g12
((lp1321
g161
ag1
(g8
g3
NtRp1322
(dp1323
g11
g12
((lp1324
I1
aI5
aI9
atRp1325
sg15
I11675
sg16
g12
((lp1326
g1
(g8
g3
NtRp1327
(dp1328
g11
g12
((lp1329
I9
aI5
atRp1330
sg15
I16200
sg16
g12
((lp1331
g136
ag171
atRp1332
sg18
g12
((lp1333
g1322
ag1
(g8
g3
NtRp1334
(dp1335
g11
g12
((lp1336
I9
aI3
aI5
atRp1337
sg15
I25800
sg16
g12
((lp1338
g1327
ag396
ag648
atRp1339
sg18
g12
((lp1340
g1
(g8
g3
NtRp1341
(dp1342
g11
g12
((lp1343
I9
aI2
aI3
aI5
atRp1344
sg15
I10125
sg16
g12
((lp1345
g1334
ag1
(g8
g3
NtRp1346
(dp1347
g11
g12
((lp1348
I9
aI2
aI5
atRp1349
sg15
I16025
sg16
g12
((lp1350
g540
ag516
ag1327
atRp1351
sg18
g12
((lp1352
g530
ag1
(g8
g3
NtRp1353
(dp1354
g11
g12
((lp1355
I1
aI2
aI5
aI9
atRp1356
sg15
I10000
sg16
g12
((lp1357
g1322
ag1346
ag1038
ag547
atRp1358
sg18
g12
((lp1359
g1
(g8
g3
NtRp1360
(dp1361
g11
g12
((lp1362
I1
aI2
aI4
aI5
aI9
atRp1363
sg15
I15200
sg16
g12
((lp1364
g1305
ag1317
ag530
ag1353
ag1033
atRp1365
sg18
g12
((ltRp1366
sbag1
(g8
g3
NtRp1367
(dp1368
g11
g12
((lp1369
I1
aI2
aI3
aI5
aI9
atRp1370
sg15
I11675
sg16
g12
((lp1371
g1341
ag386
ag1045
ag1
(g8
g3
NtRp1372
(dp1373
g11
g12
((lp1374
I1
aI3
aI5
aI9
atRp1375
sg15
I12100
sg16
g12
((lp1376
g1334
ag907
ag1322
ag391
atRp1377
sg18
g12
((lp1378
g1367
atRp1379
sbag1353
atRp1380
sg18
g12
((ltRp1381
sbatRp1382
sbag1341
atRp1383
sbag1
(g8
g3
NtRp1384
(dp1385
g11
g12
((lp1386
I2
aI3
aI5
atRp1387
sg15
I10550
sg16
g12
((lp1388
g540
ag396
ag317
atRp1389
sg18
g12
((lp1390
g1
(g8
g3
NtRp1391
(dp1392
g11
g12
((lp1393
I2
aI3
aI5
aI6
atRp1394
sg15
I10475
sg16
g12
((lp1395
g312
ag1
(g8
g3
NtRp1396
(dp1397
g11
g12
((lp1398
I3
aI5
aI6
atRp1399
sg15
I37325
sg16
g12
((lp1400
g305
ag142
ag396
atRp1401
sg18
g12
((lp1402
g1391
ag1
(g8
g3
NtRp1403
(dp1404
g11
g12
((lp1405
I1
aI3
aI5
aI6
atRp1406
sg15
I10000
sg16
g12
((lp1407
g1274
ag391
ag807
ag1396
atRp1408
sg18
g12
((lp1409
g1
(g8
g3
NtRp1410
(dp1411
g11
g12
((lp1412
I1
aI3
aI4
aI5
aI6
atRp1413
sg15
I10200
sg16
g12
((lp1414
g1
(g8
g3
NtRp1415
(dp1416
g11
g12
((lp1417
I1
aI4
aI5
aI6
atRp1418
sg15
I28225
sg16
g12
((lp1419
g1274
ag149
ag1
(g8
g3
NtRp1420
(dp1421
g11
g12
((lp1422
I1
aI4
aI6
atRp1423
sg15
I11475
sg16
g12
((lp1424
g98
ag876
ag960
atRp1425
sg18
g12
((lp1426
g866
ag1117
ag1
(g8
g3
NtRp1427
(dp1428
g11
g12
((lp1429
I8
aI1
aI4
aI6
atRp1430
sg15
I10125
sg16
g12
((lp1431
g1
(g8
g3
NtRp1432
(dp1433
g11
g12
((lp1434
I8
aI4
aI6
atRp1435
sg15
I15700
sg16
g12
((lp1436
g199
ag876
ag684
atRp1437
sg18
g12
((lp1438
g1427
ag1
(g8
g3
NtRp1439
(dp1440
g11
g12
((lp1441
I8
aI2
aI4
aI6
atRp1442
sg15
I10375
sg16
g12
((lp1443
g871
ag206
ag679
ag1432
atRp1444
sg18
g12
((lp1445
g1
(g8
g3
NtRp1446
(dp1447
g11
g12
((lp1448
I8
aI1
aI2
aI4
aI6
atRp1449
sg15
I11900
sg16
g12
((lp1450
g1427
ag1249
ag1439
ag1
(g8
g3
NtRp1451
(dp1452
g11
g12
((lp1453
I8
aI1
aI2
aI4
atRp1454
sg15
I15850
sg16
g12
((lp1455
g735
ag1026
ag679
ag955
atRp1456
sg18
g12
((lp1457
g1
(g8
g3
NtRp1458
(dp1459
g11
g12
((lp1460
I8
aI1
aI2
aI3
aI4
atRp1461
sg15
I13775
sg16
g12
((lp1462
g1
(g8
g3
NtRp1463
(dp1464
g11
g12
((lp1465
I8
aI1
aI3
aI4
atRp1466
sg15
I11175
sg16
g12
((lp1467
g1
(g8
g3
NtRp1468
(dp1469
g11
g12
((lp1470
I1
aI3
aI4
atRp1471
sg15
I12650
sg16
g12
((lp1472
g600
ag960
ag348
atRp1473
sg18
g12
((lp1474
g1
(g8
g3
NtRp1475
(dp1476
g11
g12
((lp1477
I1
aI2
aI3
aI4
atRp1478
sg15
I18350
sg16
g12
((lp1479
g1026
ag379
ag631
ag1468
atRp1480
sg18
g12
((lp1481
g1
(g8
g3
NtRp1482
(dp1483
g11
g12
((lp1484
I1
aI2
aI3
aI4
aI9
atRp1485
sg15
I20800
sg16
g12
((lp1486
g1
(g8
g3
NtRp1487
(dp1488
g11
g12
((lp1489
I1
aI3
aI4
aI9
atRp1490
sg15
I14050
sg16
g12
((lp1491
g907
ag643
ag1
(g8
g3
NtRp1492
(dp1493
g11
g12
((lp1494
I1
aI4
aI9
atRp1495
sg15
I12675
sg16
g12
((lp1496
g166
ag960
ag900
atRp1497
sg18
g12
((lp1498
g1317
ag1033
ag1487
ag1
(g8
g3
NtRp1499
(dp1500
g11
g12
((lp1501
I1
aI4
aI6
aI9
atRp1502
sg15
I18350
sg16
g12
((lp1503
g883
ag895
ag1420
ag1492
atRp1504
sg18
g12
((ltRp1505
sbatRp1506
sbag1468
atRp1507
sg18
g12
((lp1508
g1482
atRp1509
sbag1475
ag1045
ag1033
ag638
atRp1510
sg18
g12
((ltRp1511
sbag1
(g8
g3
NtRp1512
(dp1513
g11
g12
((lp1514
I3
aI1
aI2
aI11
aI4
atRp1515
sg15
I11900
sg16
g12
((lp1516
g1
(g8
g3
NtRp1517
(dp1518
g11
g12
((lp1519
I1
aI2
aI11
aI4
atRp1520
sg15
I12550
sg16
g12
((lp1521
g1026
ag1
(g8
g3
NtRp1522
(dp1523
g11
g12
((lp1524
I1
aI11
aI4
atRp1525
sg15
I15925
sg16
g12
((lp1526
g281
ag960
ag1
(g8
g3
NtRp1527
(dp1528
g11
g12
((lp1529
I11
aI4
atRp1530
sg15
I10450
sg16
g12
((lp1531
g263
ag58
atRp1532
sg18
g12
((lp1533
g1522
ag1
(g8
g3
NtRp1534
(dp1535
g11
g12
((lp1536
I3
aI11
aI4
atRp1537
sg15
I15125
sg16
g12
((lp1538
g600
ag1527
ag1
(g8
g3
NtRp1539
(dp1540
g11
g12
((lp1541
I11
aI3
atRp1542
sg15
I11400
sg16
g12
((lp1543
g263
ag36
atRp1544
sg18
g12
((lp1545
g1
(g8
g3
NtRp1546
(dp1547
g11
g12
((lp1548
I3
aI2
aI11
atRp1549
sg15
I11800
sg16
g12
((lp1550
g258
ag1539
ag317
atRp1551
sg18
g12
((lp1552
g1
(g8
g3
NtRp1553
(dp1554
g11
g12
((lp1555
I3
aI2
aI11
aI5
atRp1556
sg15
I10450
sg16
g12
((lp1557
g1
(g8
g3
NtRp1558
(dp1559
g11
g12
((lp1560
I2
aI11
aI5
atRp1561
sg15
I13350
sg16
g12
((lp1562
g258
ag1
(g8
g3
NtRp1563
(dp1564
g11
g12
((lp1565
I11
aI5
atRp1566
sg15
I15325
sg16
g12
((lp1567
g263
ag136
atRp1568
sg18
g12
((lp1569
g1558
ag1
(g8
g3
NtRp1570
(dp1571
g11
g12
((lp1572
I3
aI11
aI5
atRp1573
sg15
I17025
sg16
g12
((lp1574
g1563
ag396
ag1539
atRp1575
sg18
g12
((lp1576
g1553
ag1
(g8
g3
NtRp1577
(dp1578
g11
g12
((lp1579
I11
aI1
aI3
aI5
atRp1580
sg15
I12300
sg16
g12
((lp1581
g391
ag1
(g8
g3
NtRp1582
(dp1583
g11
g12
((lp1584
I1
aI11
aI5
atRp1585
sg15
I12800
sg16
g12
((lp1586
g1563
ag552
ag281
atRp1587
sg18
g12
((lp1588
g1577
ag1
(g8
g3
NtRp1589
(dp1590
g11
g12
((lp1591
I1
aI2
aI11
aI5
atRp1592
sg15
I15475
sg16
g12
((lp1593
g1558
ag1582
ag547
ag1
(g8
g3
NtRp1594
(dp1595
g11
g12
((lp1596
I1
aI2
aI11
atRp1597
sg15
I19800
sg16
g12
((lp1598
g87
ag281
ag258
atRp1599
sg18
g12
((lp1600
g1517
ag1
(g8
g3
NtRp1601
(dp1602
g11
g12
((lp1603
I11
aI1
aI2
aI3
atRp1604
sg15
I20950
sg16
g12
((lp1605
g1
(g8
g3
NtRp1606
(dp1607
g11
g12
((lp1608
I3
aI1
aI11
atRp1609
sg15
I10425
sg16
g12
((lp1610
g1539
ag348
ag281
atRp1611
sg18
g12
((lp1612
g1
(g8
g3
NtRp1613
(dp1614
g11
g12
((lp1615
I3
aI1
aI11
aI7
atRp1616
sg15
I10050
sg16
g12
((lp1617
g583
ag571
ag1606
ag919
atRp1618
sg18
g12
((ltRp1619
sbag1
(g8
g3
NtRp1620
(dp1621
g11
g12
((lp1622
I3
aI1
aI11
aI4
atRp1623
sg15
I14825
sg16
g12
((lp1624
g1606
ag1522
ag1534
ag1468
atRp1625
sg18
g12
((lp1626
g1512
atRp1627
sbag1577
ag1601
ag1
(g8
g3
NtRp1628
(dp1629
g11
g12
((lp1630
I11
aI1
aI3
aI6
atRp1631
sg15
I11025
sg16
g12
((lp1632
g1606
ag288
ag300
ag807
atRp1633
sg18
g12
((ltRp1634
sbatRp1635
sbag1594
ag379
ag1546
atRp1636
sg18
g12
((lp1637
g1512
ag1
(g8
g3
NtRp1638
(dp1639
g11
g12
((lp1640
I11
aI1
aI2
aI3
aI5
atRp1641
sg15
I11900
sg16
g12
((lp1642
g386
ag1553
ag1577
ag1601
ag1589
atRp1643
sg18
g12
((ltRp1644
sbatRp1645
sbag1
(g8
g3
NtRp1646
(dp1647
g11
g12
((lp1648
I1
aI2
aI11
aI6
atRp1649
sg15
I13750
sg16
g12
((lp1650
g463
ag288
ag1594
ag1
(g8
g3
NtRp1651
(dp1652
g11
g12
((lp1653
I2
aI11
aI6
atRp1654
sg15
I11350
sg16
g12
((lp1655
g258
ag211
ag293
atRp1656
sg18
g12
((lp1657
g1646
atRp1658
sbatRp1659
sg18
g12
((ltRp1660
sbag1
(g8
g3
NtRp1661
(dp1662
g11
g12
((lp1663
I1
aI2
aI11
aI7
atRp1664
sg15
I17275
sg16
g12
((lp1665
g1086
ag571
ag1594
ag1
(g8
g3
NtRp1666
(dp1667
g11
g12
((lp1668
I2
aI11
aI7
atRp1669
sg15
I12075
sg16
g12
((lp1670
g258
ag576
ag752
atRp1671
sg18
g12
((lp1672
g1661
atRp1673
sbatRp1674
sg18
g12
((ltRp1675
sbag1
(g8
g3
NtRp1676
(dp1677
g11
g12
((lp1678
I8
aI1
aI2
aI11
atRp1679
sg15
I18475
sg16
g12
((lp1680
g276
ag1
(g8
g3
NtRp1681
(dp1682
g11
g12
((lp1683
I8
aI2
aI11
atRp1684
sg15
I28350
sg16
g12
((lp1685
g258
ag269
ag672
atRp1686
sg18
g12
((lp1687
g1676
atRp1688
sbag735
ag1594
atRp1689
sg18
g12
((ltRp1690
sbag1589
atRp1691
sbatRp1692
sg18
g12
((lp1693
g1638
atRp1694
sbag1
(g8
g3
NtRp1695
(dp1696
g11
g12
((lp1697
I1
aI11
aI4
aI5
atRp1698
sg15
I14450
sg16
g12
((lp1699
g1582
ag1522
ag1
(g8
g3
NtRp1700
(dp1701
g11
g12
((lp1702
I11
aI4
aI5
atRp1703
sg15
I14025
sg16
g12
((lp1704
g154
ag1527
ag1563
atRp1705
sg18
g12
((lp1706
g1695
atRp1707
sbag1310
atRp1708
sg18
g12
((ltRp1709
sbatRp1710
sbag1570
ag1606
atRp1711
sg18
g12
((lp1712
g1638
atRp1713
sbatRp1714
sbag1700
ag1582
atRp1715
sbag540
atRp1716
sg18
g12
((lp1717
g1553
ag1589
atRp1718
sbag1570
ag1384
ag1546
atRp1719
sg18
g12
((lp1720
g1638
atRp1721
sbag1601
ag1
(g8
g3
NtRp1722
(dp1723
g11
g12
((lp1724
I3
aI2
aI11
aI4
atRp1725
sg15
I13100
sg16
g12
((lp1726
g253
ag1534
ag631
ag1546
atRp1727
sg18
g12
((lp1728
g1512
atRp1729
sbatRp1730
sbag1606
ag300
ag583
ag1570
ag1534
atRp1731
sbatRp1732
sg18
g12
((lp1733
g1620
ag1722
atRp1734
sbag1700
ag253
atRp1735
sbatRp1736
sg18
g12
((lp1737
g1517
ag1695
ag1620
atRp1738
sbag1594
ag253
atRp1739
sg18
g12
((lp1740
g1512
atRp1741
sbag1722
ag1620
ag1601
ag1475
atRp1742
sg18
g12
((ltRp1743
sbag1
(g8
g3
NtRp1744
(dp1745
g11
g12
((lp1746
I1
aI2
aI3
aI4
aI10
atRp1747
sg15
I11800
sg16
g12
((lp1748
g1
(g8
g3
NtRp1749
(dp1750
g11
g12
((lp1751
I1
aI10
aI3
aI4
atRp1752
sg15
I20400
sg16
g12
((lp1753
g819
ag607
ag1468
ag1
(g8
g3
NtRp1754
(dp1755
g11
g12
((lp1756
I1
aI10
aI4
atRp1757
sg15
I10925
sg16
g12
((lp1758
g1
(g8
g3
NtRp1759
(dp1760
g11
g12
((lp1761
I10
aI4
atRp1762
sg15
I10250
sg16
g12
((lp1763
g182
ag58
atRp1764
sg18
g12
((lp1765
g1754
ag1
(g8
g3
NtRp1766
(dp1767
g11
g12
((lp1768
I2
aI4
aI10
atRp1769
sg15
I13575
sg16
g12
((lp1770
g504
ag246
ag1759
atRp1771
sg18
g12
((lp1772
g626
ag1
(g8
g3
NtRp1773
(dp1774
g11
g12
((lp1775
I2
aI4
aI10
aI5
atRp1776
sg15
I10225
sg16
g12
((lp1777
g535
ag1766
ag1
(g8
g3
NtRp1778
(dp1779
g11
g12
((lp1780
I2
aI10
aI5
atRp1781
sg15
I13500
sg16
g12
((lp1782
g504
ag1
(g8
g3
NtRp1783
(dp1784
g11
g12
((lp1785
I10
aI5
atRp1786
sg15
I11300
sg16
g12
((lp1787
g182
ag136
atRp1788
sg18
g12
((lp1789
g1
(g8
g3
NtRp1790
(dp1791
g11
g12
((lp1792
I10
aI4
aI5
atRp1793
sg15
I21000
sg16
g12
((lp1794
g154
ag1783
ag1759
atRp1795
sg18
g12
((lp1796
g1
(g8
g3
NtRp1797
(dp1798
g11
g12
((lp1799
I1
aI10
aI4
aI5
atRp1800
sg15
I15150
sg16
g12
((lp1801
g1754
ag1
(g8
g3
NtRp1802
(dp1803
g11
g12
((lp1804
I1
aI10
aI5
atRp1805
sg15
I13025
sg16
g12
((lp1806
g552
ag1783
ag480
atRp1807
sg18
g12
((lp1808
g1797
ag1
(g8
g3
NtRp1809
(dp1810
g11
g12
((lp1811
I1
aI10
aI3
aI5
atRp1812
sg15
I18125
sg16
g12
((lp1813
g819
ag1
(g8
g3
NtRp1814
(dp1815
g11
g12
((lp1816
I10
aI3
aI5
atRp1817
sg15
I11625
sg16
g12
((lp1818
g612
ag396
ag1783
atRp1819
sg18
g12
((lp1820
g1809
ag1
(g8
g3
NtRp1821
(dp1822
g11
g12
((lp1823
I10
aI3
aI2
aI5
atRp1824
sg15
I20950
sg16
g12
((lp1825
g619
ag1778
ag1384
ag1814
atRp1826
sg18
g12
((lp1827
g1
(g8
g3
NtRp1828
(dp1829
g11
g12
((lp1830
I1
aI10
aI3
aI2
aI5
atRp1831
sg15
I10025
sg16
g12
((lp1832
g826
ag386
ag1809
ag1821
ag1
(g8
g3
NtRp1833
(dp1834
g11
g12
((lp1835
I1
aI2
aI10
aI5
atRp1836
sg15
I13450
sg16
g12
((lp1837
g1802
ag475
ag547
ag1778
atRp1838
sg18
g12
((lp1839
g1
(g8
g3
NtRp1840
(dp1841
g11
g12
((lp1842
I1
aI2
aI4
aI10
aI5
atRp1843
sg15
I10200
sg16
g12
((lp1844
g1305
ag1797
ag1773
ag1833
ag1
(g8
g3
NtRp1845
(dp1846
g11
g12
((lp1847
I1
aI2
aI4
aI10
atRp1848
sg15
I13625
sg16
g12
((lp1849
g1026
ag1766
ag475
ag1754
atRp1850
sg18
g12
((lp1851
g1840
ag1744
atRp1852
sbatRp1853
sg18
g12
((ltRp1854
sbag1828
atRp1855
sbatRp1856
sg18
g12
((ltRp1857
sbatRp1858
sbatRp1859
sbag1802
ag391
atRp1860
sg18
g12
((lp1861
g1828
atRp1862
sbag1833
atRp1863
sbag1310
ag1790
atRp1864
sg18
g12
((lp1865
g1840
atRp1866
sbag1773
atRp1867
sbag1778
ag1814
ag1802
atRp1868
sbag540
atRp1869
sg18
g12
((lp1870
g1773
ag1833
ag1821
atRp1871
sbag1790
atRp1872
sg18
g12
((lp1873
g1840
atRp1874
sbag1845
atRp1875
sbag607
ag1790
ag1
(g8
g3
NtRp1876
(dp1877
g11
g12
((lp1878
I10
aI4
aI6
atRp1879
sg15
I16975
sg16
g12
((lp1880
g1759
ag876
ag492
atRp1881
sg18
g12
((lp1882
g1
(g8
g3
NtRp1883
(dp1884
g11
g12
((lp1885
I1
aI10
aI4
aI6
atRp1886
sg15
I12100
sg16
g12
((lp1887
g1754
ag1876
ag1420
ag487
atRp1888
sg18
g12
((ltRp1889
sbatRp1890
sbatRp1891
sbag960
ag480
atRp1892
sg18
g12
((lp1893
g1749
ag1797
ag1883
ag1845
atRp1894
sbatRp1895
sg18
g12
((lp1896
g1744
atRp1897
sbag1475
ag1845
ag826
ag626
atRp1898
sg18
g12
((ltRp1899
sbag1458
ag861
ag1
(g8
g3
NtRp1900
(dp1901
g11
g12
((lp1902
I1
aI2
aI3
aI4
aI13
atRp1903
sg15
I13750
sg16
g12
((lp1904
g1
(g8
g3
NtRp1905
(dp1906
g11
g12
((lp1907
I2
aI3
aI4
aI13
atRp1908
sg15
I10300
sg16
g12
((lp1909
g1
(g8
g3
NtRp1910
(dp1911
g11
g12
((lp1912
I3
aI4
aI13
atRp1913
sg15
I12275
sg16
g12
((lp1914
g600
ag53
ag42
atRp1915
sg18
g12
((lp1916
g1905
ag1
(g8
g3
NtRp1917
(dp1918
g11
g12
((lp1919
I1
aI3
aI4
aI13
atRp1920
sg15
I12050
sg16
g12
((lp1921
g1910
ag1
(g8
g3
NtRp1922
(dp1923
g11
g12
((lp1924
I1
aI4
aI13
atRp1925
sg15
I12700
sg16
g12
((lp1926
g432
ag960
ag53
atRp1927
sg18
g12
((lp1928
g1
(g8
g3
NtRp1929
(dp1930
g11
g12
((lp1931
I1
aI2
aI4
aI13
atRp1932
sg15
I15850
sg16
g12
((lp1933
g1026
ag427
ag1922
ag1
(g8
g3
NtRp1934
(dp1935
g11
g12
((lp1936
I2
aI4
aI13
atRp1937
sg15
I17425
sg16
g12
((lp1938
g246
ag53
ag420
atRp1939
sg18
g12
((lp1940
g1905
ag1929
atRp1941
sbatRp1942
sg18
g12
((lp1943
g1900
atRp1944
sbag1917
atRp1945
sbag1
(g8
g3
NtRp1946
(dp1947
g11
g12
((lp1948
I1
aI3
aI13
atRp1949
sg15
I16525
sg16
g12
((lp1950
g432
ag348
ag42
atRp1951
sg18
g12
((lp1952
g1
(g8
g3
NtRp1953
(dp1954
g11
g12
((lp1955
I1
aI3
aI5
aI13
atRp1956
sg15
I11475
sg16
g12
((lp1957
g403
ag391
ag1
(g8
g3
NtRp1958
(dp1959
g11
g12
((lp1960
I1
aI13
aI5
atRp1961
sg15
I11825
sg16
g12
((lp1962
g408
ag552
ag432
atRp1963
sg18
g12
((lp1964
g1953
ag1
(g8
g3
NtRp1965
(dp1966
g11
g12
((lp1967
I1
aI2
aI13
aI5
atRp1968
sg15
I14625
sg16
g12
((lp1969
g415
ag427
ag547
ag1958
atRp1970
sg18
g12
((ltRp1971
sbatRp1972
sbag1946
atRp1973
sg18
g12
((ltRp1974
sbag1
(g8
g3
NtRp1975
(dp1976
g11
g12
((lp1977
I1
aI2
aI3
aI13
atRp1978
sg15
I11000
sg16
g12
((lp1979
g427
ag379
ag1946
ag1
(g8
g3
NtRp1980
(dp1981
g11
g12
((lp1982
I2
aI3
aI13
atRp1983
sg15
I11025
sg16
g12
((lp1984
g317
ag42
ag420
atRp1985
sg18
g12
((lp1986
g1905
ag1975
atRp1987
sbatRp1988
sg18
g12
((lp1989
g1900
atRp1990
sbag1917
atRp1991
sbag1468
atRp1992
sg18
g12
((lp1993
g1900
atRp1994
sbatRp1995
sbag1980
ag631
ag1934
atRp1996
sg18
g12
((lp1997
g1900
atRp1998
sbag1475
ag1917
ag1975
ag1929
atRp1999
sg18
g12
((ltRp2000
sbag1
(g8
g3
NtRp2001
(dp2002
g11
g12
((lp2003
I1
aI2
aI3
aI4
aI14
atRp2004
sg15
I12950
sg16
g12
((lp2005
g1
(g8
g3
NtRp2006
(dp2007
g11
g12
((lp2008
I1
aI2
aI4
aI14
atRp2009
sg15
I10525
sg16
g12
((lp2010
g1026
ag1
(g8
g3
NtRp2011
(dp2012
g11
g12
((lp2013
I1
aI2
aI14
atRp2014
sg15
I13450
sg16
g12
((lp2015
g87
ag1
(g8
g3
NtRp2016
(dp2017
g11
g12
((lp2018
I1
aI14
atRp2019
sg15
I10975
sg16
g12
((lp2020
g92
ag228
atRp2021
sg18
g12
((lp2022
g1
(g8
g3
NtRp2023
(dp2024
g11
g12
((lp2025
I1
aI5
aI14
atRp2026
sg15
I10775
sg16
g12
((lp2027
g1
(g8
g3
NtRp2028
(dp2029
g11
g12
((lp2030
I5
aI14
atRp2031
sg15
I11550
sg16
g12
((lp2032
g228
ag136
atRp2033
sg18
g12
((lp2034
g2023
ag1
(g8
g3
NtRp2035
(dp2036
g11
g12
((lp2037
I2
aI5
aI14
atRp2038
sg15
I14575
sg16
g12
((lp2039
g2028
ag540
ag223
atRp2040
sg18
g12
((lp2041
g1
(g8
g3
NtRp2042
(dp2043
g11
g12
((lp2044
I1
aI2
aI5
aI14
atRp2045
sg15
I13800
sg16
g12
((lp2046
g2023
ag2035
ag547
ag2011
atRp2047
sg18
g12
((ltRp2048
sbatRp2049
sbatRp2050
sbag552
ag2016
atRp2051
sg18
g12
((lp2052
g2042
atRp2053
sbag1
(g8
g3
NtRp2054
(dp2055
g11
g12
((lp2056
I1
aI14
aI7
atRp2057
sg15
I29125
sg16
g12
((lp2058
g2016
ag564
ag1
(g8
g3
NtRp2059
(dp2060
g11
g12
((lp2061
I14
aI7
atRp2062
sg15
I16125
sg16
g12
((lp2063
g228
ag125
atRp2064
sg18
g12
((lp2065
g2054
atRp2066
sbatRp2067
sg18
g12
((ltRp2068
sbag1
(g8
g3
NtRp2069
(dp2070
g11
g12
((lp2071
I1
aI3
aI14
atRp2072
sg15
I25750
sg16
g12
((lp2073
g2016
ag348
ag1
(g8
g3
NtRp2074
(dp2075
g11
g12
((lp2076
I3
aI14
atRp2077
sg15
I22675
sg16
g12
((lp2078
g228
ag36
atRp2079
sg18
g12
((lp2080
g2069
ag1
(g8
g3
NtRp2081
(dp2082
g11
g12
((lp2083
I3
aI4
aI14
atRp2084
sg15
I11500
sg16
g12
((lp2085
g234
ag2074
ag600
atRp2086
sg18
g12
((lp2087
g1
(g8
g3
NtRp2088
(dp2089
g11
g12
((lp2090
I2
aI3
aI4
aI14
atRp2091
sg15
I16750
sg16
g12
((lp2092
g631
ag241
ag2081
ag1
(g8
g3
NtRp2093
(dp2094
g11
g12
((lp2095
I2
aI3
aI14
atRp2096
sg15
I10775
sg16
g12
((lp2097
g223
ag2074
ag317
atRp2098
sg18
g12
((lp2099
g2088
ag1
(g8
g3
NtRp2100
(dp2101
g11
g12
((lp2102
I1
aI2
aI3
aI14
atRp2103
sg15
I16650
sg16
g12
((lp2104
g2011
ag379
ag2069
ag2093
atRp2105
sg18
g12
((lp2106
g2001
atRp2107
sbatRp2108
sbatRp2109
sg18
g12
((lp2110
g2001
atRp2111
sbag1
(g8
g3
NtRp2112
(dp2113
g11
g12
((lp2114
I1
aI3
aI4
aI14
atRp2115
sg15
I11400
sg16
g12
((lp2116
g1468
ag2081
ag2069
ag1
(g8
g3
NtRp2117
(dp2118
g11
g12
((lp2119
I1
aI4
aI14
atRp2120
sg15
I11275
sg16
g12
((lp2121
g234
ag960
ag2016
atRp2122
sg18
g12
((lp2123
g2006
ag2112
atRp2124
sbatRp2125
sg18
g12
((lp2126
g2001
atRp2127
sbatRp2128
sbag2093
atRp2129
sbatRp2130
sg18
g12
((lp2131
g2100
ag2112
atRp2132
sbag2117
ag1
(g8
g3
NtRp2133
(dp2134
g11
g12
((lp2135
I1
aI14
aI6
atRp2136
sg15
I12100
sg16
g12
((lp2137
g98
ag1
(g8
g3
NtRp2138
(dp2139
g11
g12
((lp2140
I6
aI14
atRp2141
sg15
I17125
sg16
g12
((lp2142
g228
ag103
atRp2143
sg18
g12
((lp2144
g2133
ag218
atRp2145
sbag2016
atRp2146
sg18
g12
((lp2147
g1
(g8
g3
NtRp2148
(dp2149
g11
g12
((lp2150
I1
aI2
aI14
aI6
atRp2151
sg15
I11050
sg16
g12
((lp2152
g2133
ag2011
ag218
ag463
atRp2153
sg18
g12
((ltRp2154
sbatRp2155
sbag2011
atRp2156
sbag223
atRp2157
sg18
g12
((lp2158
g2042
ag2148
ag2100
ag2006
atRp2159
sbag2117
ag241
atRp2160
sg18
g12
((lp2161
g2001
atRp2162
sbag1475
ag2112
ag2088
ag2100
atRp2163
sg18
g12
((ltRp2164
sbag1
(g8
g3
NtRp2165
(dp2166
g11
g12
((lp2167
I1
aI2
aI3
aI4
aI12
atRp2168
sg15
I10625
sg16
g12
((lp2169
g1
(g8
g3
NtRp2170
(dp2171
g11
g12
((lp2172
I12
aI2
aI3
aI4
atRp2173
sg15
I10925
sg16
g12
((lp2174
g324
ag1
(g8
g3
NtRp2175
(dp2176
g11
g12
((lp2177
I4
aI3
aI12
atRp2178
sg15
I18425
sg16
g12
((lp2179
g329
ag600
ag1
(g8
g3
NtRp2180
(dp2181
g11
g12
((lp2182
I12
aI4
atRp2183
sg15
I25875
sg16
g12
((lp2184
g58
ag114
atRp2185
sg18
g12
((lp2186
g1
(g8
g3
NtRp2187
(dp2188
g11
g12
((lp2189
I12
aI2
aI4
atRp2190
sg15
I10050
sg16
g12
((lp2191
g2180
ag1
(g8
g3
NtRp2192
(dp2193
g11
g12
((lp2194
I2
aI12
atRp2195
sg15
I15575
sg16
g12
((lp2196
g9
ag114
atRp2197
sg18
g12
((lp2198
g324
ag2187
ag1
(g8
g3
NtRp2199
(dp2200
g11
g12
((lp2201
I2
aI12
aI6
atRp2202
sg15
I17950
sg16
g12
((lp2203
g109
ag2192
ag211
atRp2204
sg18
g12
((lp2205
g1
(g8
g3
NtRp2206
(dp2207
g11
g12
((lp2208
I1
aI2
aI12
aI6
atRp2209
sg15
I22000
sg16
g12
((lp2210
g463
ag1
(g8
g3
NtRp2211
(dp2212
g11
g12
((lp2213
I1
aI12
aI6
atRp2214
sg15
I10250
sg16
g12
((lp2215
g98
ag1
(g8
g3
NtRp2216
(dp2217
g11
g12
((lp2218
I1
aI12
atRp2219
sg15
I11750
sg16
g12
((lp2220
g92
ag114
atRp2221
sg18
g12
((lp2222
g1
(g8
g3
NtRp2223
(dp2224
g11
g12
((lp2225
I1
aI4
aI12
atRp2226
sg15
I14000
sg16
g12
((lp2227
g2180
ag960
ag2216
atRp2228
sg18
g12
((lp2229
g1
(g8
g3
NtRp2230
(dp2231
g11
g12
((lp2232
I1
aI2
aI4
aI12
atRp2233
sg15
I10050
sg16
g12
((lp2234
g1026
ag2187
ag2223
ag1
(g8
g3
NtRp2235
(dp2236
g11
g12
((lp2237
I1
aI2
aI12
atRp2238
sg15
I41975
sg16
g12
((lp2239
g87
ag2192
ag2216
atRp2240
sg18
g12
((lp2241
g1
(g8
g3
NtRp2242
(dp2243
g11
g12
((lp2244
I1
aI2
aI12
aI5
atRp2245
sg15
I25550
sg16
g12
((lp2246
g2235
ag547
ag1
(g8
g3
NtRp2247
(dp2248
g11
g12
((lp2249
I2
aI12
aI5
atRp2250
sg15
I11200
sg16
g12
((lp2251
g540
ag2192
ag1
(g8
g3
NtRp2252
(dp2253
g11
g12
((lp2254
I12
aI5
atRp2255
sg15
I23325
sg16
g12
((lp2256
g136
ag114
atRp2257
sg18
g12
((lp2258
g2247
ag1
(g8
g3
NtRp2259
(dp2260
g11
g12
((lp2261
I3
aI12
aI5
atRp2262
sg15
I11675
sg16
g12
((lp2263
g329
ag2252
ag396
atRp2264
sg18
g12
((lp2265
g1
(g8
g3
NtRp2266
(dp2267
g11
g12
((lp2268
I1
aI3
aI12
aI5
atRp2269
sg15
I12100
sg16
g12
((lp2270
g391
ag2259
ag343
ag1
(g8
g3
NtRp2271
(dp2272
g11
g12
((lp2273
I1
aI12
aI5
atRp2274
sg15
I18425
sg16
g12
((lp2275
g2216
ag552
ag2252
atRp2276
sg18
g12
((lp2277
g2242
ag2266
atRp2278
sbatRp2279
sg18
g12
((ltRp2280
sbatRp2281
sbag2271
atRp2282
sbatRp2283
sg18
g12
((lp2284
g2242
atRp2285
sbag2271
atRp2286
sg18
g12
((ltRp2287
sbag2230
ag2206
ag1
(g8
g3
NtRp2288
(dp2289
g11
g12
((lp2290
I1
aI2
aI3
aI12
atRp2291
sg15
I13775
sg16
g12
((lp2292
g324
ag379
ag343
ag2235
atRp2293
sg18
g12
((lp2294
g2165
atRp2295
sbatRp2296
sbatRp2297
sg18
g12
((lp2298
g2165
atRp2299
sbag1
(g8
g3
NtRp2300
(dp2301
g11
g12
((lp2302
I1
aI3
aI4
aI12
atRp2303
sg15
I11175
sg16
g12
((lp2304
g343
ag2223
ag2175
ag1468
atRp2305
sg18
g12
((lp2306
g2165
atRp2307
sbatRp2308
sbag2211
ag343
ag1
(g8
g3
NtRp2309
(dp2310
g11
g12
((lp2311
I1
aI12
aI7
atRp2312
sg15
I11625
sg16
g12
((lp2313
g2216
ag564
ag120
atRp2314
sg18
g12
((ltRp2315
sbag2235
ag2271
ag1
(g8
g3
NtRp2316
(dp2317
g11
g12
((lp2318
I8
aI1
aI12
atRp2319
sg15
I10075
sg16
g12
((lp2320
g2216
ag708
ag1
(g8
g3
NtRp2321
(dp2322
g11
g12
((lp2323
I8
aI12
atRp2324
sg15
I22925
sg16
g12
((lp2325
g193
ag114
atRp2326
sg18
g12
((lp2327
g2316
atRp2328
sbatRp2329
sg18
g12
((ltRp2330
sbatRp2331
sbag109
atRp2332
sg18
g12
((lp2333
g2206
atRp2334
sbag2199
ag2235
atRp2335
sg18
g12
((ltRp2336
sbatRp2337
sbag2247
ag2235
atRp2338
sbag246
atRp2339
sg18
g12
((lp2340
g2170
ag2230
atRp2341
sbag2223
ag2175
atRp2342
sbatRp2343
sg18
g12
((lp2344
g2170
ag2300
atRp2345
sbag631
ag2187
atRp2346
sg18
g12
((lp2347
g2165
atRp2348
sbag1475
ag2300
ag2288
ag2230
atRp2349
sg18
g12
((ltRp2350
sbag1
(g8
g3
NtRp2351
(dp2352
g11
g12
((lp2353
I1
aI2
aI3
aI4
aI7
atRp2354
sg15
I23475
sg16
g12
((lp2355
g1
(g8
g3
NtRp2356
(dp2357
g11
g12
((lp2358
I1
aI3
aI4
aI7
atRp2359
sg15
I12350
sg16
g12
((lp2360
g919
ag1468
ag1110
ag595
atRp2361
sg18
g12
((lp2362
g2351
ag1
(g8
g3
NtRp2363
(dp2364
g11
g12
((lp2365
I1
aI3
aI4
aI6
aI7
atRp2366
sg15
I12400
sg16
g12
((lp2367
g1117
ag2356
ag1
(g8
g3
NtRp2368
(dp2369
g11
g12
((lp2370
I3
aI4
aI6
aI7
atRp2371
sg15
I12825
sg16
g12
((lp2372
g795
ag595
ag783
ag1
(g8
g3
NtRp2373
(dp2374
g11
g12
((lp2375
I3
aI4
aI6
atRp2376
sg15
I14400
sg16
g12
((lp2377
g305
ag876
ag600
atRp2378
sg18
g12
((lp2379
g1
(g8
g3
NtRp2380
(dp2381
g11
g12
((lp2382
I2
aI3
aI4
aI6
atRp2383
sg15
I10200
sg16
g12
((lp2384
g871
ag2373
ag631
ag312
atRp2385
sg18
g12
((lp2386
g861
ag1
(g8
g3
NtRp2387
(dp2388
g11
g12
((lp2389
I2
aI3
aI4
aI5
aI6
atRp2390
sg15
I10950
sg16
g12
((lp2391
g1391
ag2380
ag1293
ag1
(g8
g3
NtRp2392
(dp2393
g11
g12
((lp2394
I3
aI4
aI5
aI6
atRp2395
sg15
I22775
sg16
g12
((lp2396
g1
(g8
g3
NtRp2397
(dp2398
g11
g12
((lp2399
I3
aI4
aI5
atRp2400
sg15
I12175
sg16
g12
((lp2401
g154
ag396
ag600
atRp2402
sg18
g12
((lp2403
g2392
ag1
(g8
g3
NtRp2404
(dp2405
g11
g12
((lp2406
I2
aI3
aI4
aI5
atRp2407
sg15
I11075
sg16
g12
((lp2408
g2397
ag535
ag1384
ag631
atRp2409
sg18
g12
((lp2410
g1
(g8
g3
NtRp2411
(dp2412
g11
g12
((lp2413
I2
aI3
aI4
aI5
aI7
atRp2414
sg15
I10950
sg16
g12
((lp2415
g766
ag2404
ag1
(g8
g3
NtRp2416
(dp2417
g11
g12
((lp2418
I3
aI4
aI5
aI7
atRp2419
sg15
I10725
sg16
g12
((lp2420
g771
ag2397
ag595
ag1
(g8
g3
NtRp2421
(dp2422
g11
g12
((lp2423
I3
aI5
aI7
atRp2424
sg15
I32850
sg16
g12
((lp2425
g131
ag588
ag396
atRp2426
sg18
g12
((lp2427
g2416
ag1
(g8
g3
NtRp2428
(dp2429
g11
g12
((lp2430
I1
aI3
aI5
aI7
atRp2431
sg15
I10925
sg16
g12
((lp2432
g391
ag2421
ag559
ag919
atRp2433
sg18
g12
((lp2434
g1
(g8
g3
NtRp2435
(dp2436
g11
g12
((lp2437
I1
aI3
aI4
aI5
aI7
atRp2438
sg15
I10475
sg16
g12
((lp2439
g2356
ag2416
ag2428
ag1
(g8
g3
NtRp2440
(dp2441
g11
g12
((lp2442
I1
aI3
aI4
aI5
atRp2443
sg15
I17625
sg16
g12
((lp2444
g391
ag1468
ag1310
ag2397
atRp2445
sg18
g12
((lp2446
g1
(g8
g3
NtRp2447
(dp2448
g11
g12
((lp2449
I8
aI1
aI3
aI4
aI5
atRp2450
sg15
I10025
sg16
g12
((lp2451
g1
(g8
g3
NtRp2452
(dp2453
g11
g12
((lp2454
I8
aI1
aI3
aI5
atRp2455
sg15
I11225
sg16
g12
((lp2456
g391
ag703
ag1218
ag1
(g8
g3
NtRp2457
(dp2458
g11
g12
((lp2459
I8
aI3
aI5
atRp2460
sg15
I10075
sg16
g12
((lp2461
g396
ag1211
ag696
atRp2462
sg18
g12
((lp2463
g1
(g8
g3
NtRp2464
(dp2465
g11
g12
((lp2466
I8
aI2
aI3
aI5
atRp2467
sg15
I17075
sg16
g12
((lp2468
g2457
ag1206
ag1384
ag1
(g8
g3
NtRp2469
(dp2470
g11
g12
((lp2471
I8
aI2
aI5
atRp2472
sg15
I25725
sg16
g12
((lp2473
g540
ag696
ag672
atRp2474
sg18
g12
((lp2475
g2464
ag1
(g8
g3
NtRp2476
(dp2477
g11
g12
((lp2478
I8
aI1
aI2
aI5
atRp2479
sg15
I11775
sg16
g12
((lp2480
g547
ag703
ag2469
ag735
atRp2481
sg18
g12
((lp2482
g1
(g8
g3
NtRp2483
(dp2484
g11
g12
((lp2485
I8
aI1
aI2
aI4
aI5
atRp2486
sg15
I11900
sg16
g12
((lp2487
g1
(g8
g3
NtRp2488
(dp2489
g11
g12
((lp2490
I8
aI1
aI4
aI5
atRp2491
sg15
I10050
sg16
g12
((lp2492
g703
ag955
ag1310
ag691
atRp2493
sg18
g12
((lp2494
g2483
ag2447
atRp2495
sbag1305
ag1
(g8
g3
NtRp2496
(dp2497
g11
g12
((lp2498
I8
aI2
aI4
aI5
atRp2499
sg15
I11575
sg16
g12
((lp2500
g535
ag691
ag2469
ag679
atRp2501
sg18
g12
((lp2502
g2483
atRp2503
sbag1451
ag2476
atRp2504
sg18
g12
((ltRp2505
sbag1
(g8
g3
NtRp2506
(dp2507
g11
g12
((lp2508
I8
aI1
aI2
aI3
aI5
atRp2509
sg15
I11050
sg16
g12
((lp2510
g2452
ag386
ag2464
ag1
(g8
g3
NtRp2511
(dp2512
g11
g12
((lp2513
I8
aI1
aI2
aI3
atRp2514
sg15
I13375
sg16
g12
((lp2515
g1218
ag379
ag1206
ag735
atRp2516
sg18
g12
((lp2517
g1458
ag2506
ag1244
ag1
(g8
g3
NtRp2518
(dp2519
g11
g12
((lp2520
I8
aI1
aI2
aI3
aI7
atRp2521
sg15
I16700
sg16
g12
((lp2522
g926
ag742
ag1201
ag2511
ag1189
atRp2523
sg18
g12
((ltRp2524
sbatRp2525
sbag2476
atRp2526
sg18
g12
((ltRp2527
sbatRp2528
sbag2496
atRp2529
sbatRp2530
sg18
g12
((lp2531
g2506
atRp2532
sbag1
(g8
g3
NtRp2533
(dp2534
g11
g12
((lp2535
I8
aI3
aI4
aI5
atRp2536
sg15
I13775
sg16
g12
((lp2537
g1
(g8
g3
NtRp2538
(dp2539
g11
g12
((lp2540
I8
aI3
aI4
atRp2541
sg15
I11125
sg16
g12
((lp2542
g600
ag1211
ag684
atRp2543
sg18
g12
((lp2544
g1463
ag2533
ag1
(g8
g3
NtRp2545
(dp2546
g11
g12
((lp2547
I8
aI2
aI3
aI4
atRp2548
sg15
I12825
sg16
g12
((lp2549
g2538
ag1206
ag631
ag679
atRp2550
sg18
g12
((lp2551
g1458
atRp2552
sbatRp2553
sbag2397
ag2457
ag691
atRp2554
sg18
g12
((lp2555
g2447
atRp2556
sbag2452
atRp2557
sbatRp2558
sg18
g12
((lp2559
g2506
ag2447
atRp2560
sbag2488
ag1463
ag2533
ag2440
atRp2561
sg18
g12
((ltRp2562
sbag1410
ag1
(g8
g3
NtRp2563
(dp2564
g11
g12
((lp2565
I1
aI2
aI3
aI4
aI5
atRp2566
sg15
I12275
sg16
g12
((lp2567
g1305
ag386
ag1475
ag2440
ag2404
atRp2568
sg18
g12
((lp2569
g1
(g8
g3
NtRp2570
(dp2571
g11
g12
((lp2572
I1
aI2
aI3
aI4
aI5
aI6
atRp2573
sg15
I11050
sg16
g12
((lp2574
g861
ag1
(g8
g3
NtRp2575
(dp2576
g11
g12
((lp2577
I1
aI2
aI3
aI5
aI6
atRp2578
sg15
I10325
sg16
g12
((lp2579
g1281
ag386
ag1403
ag854
ag1391
atRp2580
sg18
g12
((lp2581
g2570
atRp2582
sbag2387
ag1410
ag1300
ag2563
atRp2583
sg18
g12
((ltRp2584
sbag1
(g8
g3
NtRp2585
(dp2586
g11
g12
((lp2587
I1
aI2
aI3
aI4
aI5
aI7
atRp2588
sg15
I10150
sg16
g12
((lp2589
g1
(g8
g3
NtRp2590
(dp2591
g11
g12
((lp2592
I1
aI2
aI3
aI5
aI7
atRp2593
sg15
I10325
sg16
g12
((lp2594
g1093
ag386
ag2428
ag1189
ag1
(g8
g3
NtRp2595
(dp2596
g11
g12
((lp2597
I2
aI3
aI5
aI7
atRp2598
sg15
I11925
sg16
g12
((lp2599
g2421
ag1194
ag1384
ag759
atRp2600
sg18
g12
((lp2601
g2411
ag2590
atRp2602
sbatRp2603
sg18
g12
((lp2604
g2585
atRp2605
sbag2411
ag2435
ag1100
ag2351
ag2563
atRp2606
sg18
g12
((ltRp2607
sbatRp2608
sbag2435
atRp2609
sbag1105
atRp2610
sg18
g12
((lp2611
g2585
atRp2612
sbag2590
atRp2613
sbag2595
atRp2614
sbatRp2615
sg18
g12
((lp2616
g2411
ag2435
atRp2617
sbag1
(g8
g3
NtRp2618
(dp2619
g11
g12
((lp2620
I2
aI3
aI4
aI7
atRp2621
sg15
I20500
sg16
g12
((lp2622
g631
ag1158
ag1194
ag595
atRp2623
sg18
g12
((lp2624
g2351
ag2411
atRp2625
sbag2595
atRp2626
sg18
g12
((lp2627
g2585
atRp2628
sbag2563
ag2387
atRp2629
sbag2416
ag2533
ag2440
atRp2630
sbag2373
ag149
ag1396
atRp2631
sg18
g12
((lp2632
g1410
ag2387
atRp2633
sbag2404
atRp2634
sg18
g12
((lp2635
g2570
atRp2636
sbatRp2637
sbag2392
ag2368
ag1
(g8
g3
NtRp2638
(dp2639
g11
g12
((lp2640
I1
aI3
aI4
aI6
atRp2641
sg15
I15625
sg16
g12
((lp2642
g2373
ag1468
ag1420
ag807
atRp2643
sg18
g12
((lp2644
g861
ag2363
ag1410
atRp2645
sbatRp2646
sbatRp2647
sg18
g12
((lp2648
g2363
atRp2649
sbag2638
ag802
atRp2650
sg18
g12
((ltRp2651
sbag2435
atRp2652
sbag1475
ag1165
ag1189
ag2618
atRp2653
sg18
g12
((lp2654
g2585
atRp2655
sbag2563
atRp2656
sbag2356
ag2638
ag1917
ag2440
ag1463
ag2300
ag1749
ag2112
ag1620
ag1487
atRp2657
sbag2538
ag955
ag1218
atRp2658
sg18
g12
((lp2659
g1458
ag2447
atRp2660
sbag1475
ag2545
ag2511
ag1451
atRp2661
sg18
g12
((ltRp2662
sbag1446
ag2483
atRp2663
sbag866
atRp2664
sg18
g12
((ltRp2665
sbatRp2666
sbatRp2667
sbag1254
ag1420
ag955
atRp2668
sg18
g12
((lp2669
g1446
atRp2670
sbag1499
ag2638
ag1415
ag1883
atRp2671
sbag1310
atRp2672
sg18
g12
((lp2673
g1300
ag1410
atRp2674
sbag2392
ag1403
ag2440
ag2638
atRp2675
sg18
g12
((lp2676
g2570
atRp2677
sbag2575
atRp2678
sbag2392
atRp2679
sbag1384
ag1286
atRp2680
sg18
g12
((lp2681
g2575
ag2387
atRp2682
sbag386
ag1341
ag1553
ag2404
ag1821
ag2464
ag2595
atRp2683
sbag1050
atRp2684
sg18
g12
((lp2685
g1367
atRp2686
sbag1372
atRp2687
sbag1346
ag161
atRp2688
sbag552
ag900
atRp2689
sg18
g12
((lp2690
g1317
ag1372
ag1353
atRp2691
sbag1310
ag1492
atRp2692
sg18
g12
((lp2693
g1360
atRp2694
sbag1105
ag2440
ag1415
ag1695
ag1305
ag2488
ag1797
atRp2695
sbag535
atRp2696
sg18
g12
((lp2697
g1300
ag1360
ag2483
ag1100
ag1840
ag2563
atRp2698
sbag1415
ag866
atRp2699
sg18
g12
((lp2700
g2570
atRp2701
sbag2387
atRp2702
sbag1281
ag1141
ag1391
atRp2703
sbag547
ag1274
atRp2704
sg18
g12
((lp2705
g1300
ag2575
atRp2706
sbag1415
ag1403
ag1129
ag1261
atRp2707
sbatRp2708
sg18
g12
((ltRp2709
sbag1427
atRp2710
sbag735
atRp2711
sg18
g12
((lp2712
g1244
ag1446
atRp2713
sbag1237
ag2511
ag854
atRp2714
sg18
g12
((ltRp2715
sbatRp2716
sbag1225
atRp2717
sbag1254
ag1218
atRp2718
sg18
g12
((lp2719
g1244
atRp2720
sbag2452
ag1463
ag2511
ag1
(g8
g3
NtRp2721
(dp2722
g11
g12
((lp2723
I8
aI1
aI3
aI9
atRp2724
sg15
I19700
sg16
g12
((lp2725
g655
ag907
ag1
(g8
g3
NtRp2726
(dp2727
g11
g12
((lp2728
I8
aI1
aI9
atRp2729
sg15
I18650
sg16
g12
((lp2730
g660
ag900
ag708
atRp2731
sg18
g12
((lp2732
g2721
ag1
(g8
g3
NtRp2733
(dp2734
g11
g12
((lp2735
I8
aI1
aI2
aI9
atRp2736
sg15
I15500
sg16
g12
((lp2737
g1038
ag667
ag2726
ag735
atRp2738
sg18
g12
((ltRp2739
sbatRp2740
sbag1218
atRp2741
sg18
g12
((ltRp2742
sbatRp2743
sbag1230
ag2457
ag1206
ag2538
ag1
(g8
g3
NtRp2744
(dp2745
g11
g12
((lp2746
I8
aI3
aI7
atRp2747
sg15
I43575
sg16
g12
((lp2748
g588
ag1211
ag936
atRp2749
sg18
g12
((lp2750
g1201
ag926
atRp2751
sbatRp2752
sbag672
atRp2753
sg18
g12
((lp2754
g2464
ag1237
ag1201
ag2511
ag2545
atRp2755
sbag1194
ag2744
atRp2756
sg18
g12
((lp2757
g2518
atRp2758
sbag2618
ag1
(g8
g3
NtRp2759
(dp2760
g11
g12
((lp2761
I2
aI3
aI6
aI7
atRp2762
sg15
I12675
sg16
g12
((lp2763
g795
ag1146
ag1194
ag312
atRp2764
sg18
g12
((lp2765
g1184
atRp2766
sbag1189
ag1057
ag2595
atRp2767
sbag919
atRp2768
sg18
g12
((lp2769
g2351
ag1184
ag2590
ag2518
ag1
(g8
g3
NtRp2770
(dp2771
g11
g12
((lp2772
I1
aI2
aI3
aI9
aI7
atRp2773
sg15
I13050
sg16
g12
((lp2774
g914
ag1057
ag1045
ag1189
ag1081
atRp2775
sg18
g12
((ltRp2776
sbatRp2777
sbag1177
ag2759
ag854
ag802
atRp2778
sg18
g12
((ltRp2779
sbatRp2780
sbag1165
ag1117
atRp2781
sg18
g12
((ltRp2782
sbag1100
ag2351
atRp2783
sbag2618
atRp2784
sbag1146
atRp2785
sg18
g12
((lp2786
g1172
atRp2787
sbag1177
ag2759
ag1141
atRp2788
sbag759
ag1286
atRp2789
sg18
g12
((ltRp2790
sbag1129
atRp2791
sbag559
ag1274
atRp2792
sg18
g12
((ltRp2793
sbag1177
ag802
ag1117
atRp2794
sbag783
ag1110
ag1420
atRp2795
sg18
g12
((lp2796
g1172
ag2363
atRp2797
sbag2356
ag1105
ag1165
ag950
atRp2798
sbag1310
atRp2799
sg18
g12
((lp2800
g1100
ag2435
atRp2801
sbag1165
ag1305
atRp2802
sg18
g12
((lp2803
g2585
atRp2804
sbag2590
atRp2805
sbag1661
ag1165
ag1189
ag1081
ag1177
ag1
(g8
g3
NtRp2806
(dp2807
g11
g12
((lp2808
I1
aI2
aI10
aI7
atRp2809
sg15
I11500
sg16
g12
((lp2810
g1086
ag475
ag1
(g8
g3
NtRp2811
(dp2812
g11
g12
((lp2813
I2
aI10
aI7
atRp2814
sg15
I16800
sg16
g12
((lp2815
g504
ag1
(g8
g3
NtRp2816
(dp2817
g11
g12
((lp2818
I10
aI7
atRp2819
sg15
I14500
sg16
g12
((lp2820
g182
ag125
atRp2821
sg18
g12
((lp2822
g2811
ag1
(g8
g3
NtRp2823
(dp2824
g11
g12
((lp2825
I1
aI10
aI7
atRp2826
sg15
I15925
sg16
g12
((lp2827
g564
ag2816
ag480
atRp2828
sg18
g12
((lp2829
g2806
atRp2830
sbatRp2831
sbag752
atRp2832
sg18
g12
((lp2833
g2806
atRp2834
sbag2823
atRp2835
sg18
g12
((ltRp2836
sbatRp2837
sbag1074
ag1
(g8
g3
NtRp2838
(dp2839
g11
g12
((lp2840
I1
aI9
aI7
atRp2841
sg15
I12700
sg16
g12
((lp2842
g1067
ag564
ag900
atRp2843
sg18
g12
((lp2844
g1081
ag914
atRp2845
sbag1038
atRp2846
sg18
g12
((lp2847
g2770
atRp2848
sbatRp2849
sbag1062
ag2838
atRp2850
sbag588
ag648
atRp2851
sg18
g12
((lp2852
g1057
ag914
atRp2853
sbag1194
ag1074
atRp2854
sg18
g12
((lp2855
g2770
atRp2856
sbag1045
ag638
ag1
(g8
g3
NtRp2857
(dp2858
g11
g12
((lp2859
I9
aI2
aI3
aI6
atRp2860
sg15
I12025
sg16
g12
((lp2861
g1
(g8
g3
NtRp2862
(dp2863
g11
g12
((lp2864
I9
aI2
aI6
atRp2865
sg15
I12275
sg16
g12
((lp2866
g516
ag211
ag888
atRp2867
sg18
g12
((lp2868
g2857
ag1
(g8
g3
NtRp2869
(dp2870
g11
g12
((lp2871
I1
aI2
aI6
aI9
atRp2872
sg15
I20925
sg16
g12
((lp2873
g463
ag895
ag1038
ag2862
atRp2874
sg18
g12
((lp2875
g1
(g8
g3
NtRp2876
(dp2877
g11
g12
((lp2878
I1
aI2
aI3
aI6
aI9
atRp2879
sg15
I11050
sg16
g12
((lp2880
g1
(g8
g3
NtRp2881
(dp2882
g11
g12
((lp2883
I1
aI3
aI6
aI9
atRp2884
sg15
I31775
sg16
g12
((lp2885
g807
ag907
ag1
(g8
g3
NtRp2886
(dp2887
g11
g12
((lp2888
I9
aI3
aI6
atRp2889
sg15
I11450
sg16
g12
((lp2890
g305
ag888
ag648
atRp2891
sg18
g12
((lp2892
g2881
ag2857
atRp2893
sbag895
atRp2894
sg18
g12
((lp2895
g2876
atRp2896
sbag1045
ag2869
ag2857
ag854
atRp2897
sg18
g12
((ltRp2898
sbatRp2899
sbatRp2900
sbag2886
ag312
ag1050
atRp2901
sg18
g12
((lp2902
g2876
atRp2903
sbag1341
atRp2904
sbag907
ag1038
ag379
atRp2905
sg18
g12
((lp2906
g1482
ag2876
ag2770
ag1367
atRp2907
sbag1
(g8
g3
NtRp2908
(dp2909
g11
g12
((lp2910
I1
aI2
aI10
aI9
atRp2911
sg15
I12525
sg16
g12
((lp2912
g475
ag511
ag1038
ag1
(g8
g3
NtRp2913
(dp2914
g11
g12
((lp2915
I1
aI10
aI9
atRp2916
sg15
I13725
sg16
g12
((lp2917
g177
ag900
ag480
atRp2918
sg18
g12
((lp2919
g2908
atRp2920
sbatRp2921
sg18
g12
((ltRp2922
sbag2869
ag1081
ag1353
ag2733
atRp2923
sbag1492
ag523
atRp2924
sg18
g12
((lp2925
g1482
ag1360
atRp2926
sbag2230
ag1845
ag1451
ag1929
ag1305
ag1
(g8
g3
NtRp2927
(dp2928
g11
g12
((lp2929
I1
aI2
aI4
aI15
atRp2930
sg15
I13450
sg16
g12
((lp2931
g1026
ag1
(g8
g3
NtRp2932
(dp2933
g11
g12
((lp2934
I2
aI4
aI15
atRp2935
sg15
I11350
sg16
g12
((lp2936
g246
ag1
(g8
g3
NtRp2937
(dp2938
g11
g12
((lp2939
I4
aI15
atRp2940
sg15
I15700
sg16
g12
((lp2941
g1
(g8
g3
NtRp2942
(dp2943
g11
g12
((lp2944
I15
atRp2945
sg15
I21413
sg16
g12
((ltRp2946
sg18
g12
((lp2947
g1
(g8
g3
NtRp2948
(dp2949
g11
g12
((lp2950
I5
aI15
atRp2951
sg15
I14125
sg16
g12
((lp2952
g2942
ag136
atRp2953
sg18
g12
((lp2954
g1
(g8
g3
NtRp2955
(dp2956
g11
g12
((lp2957
I2
aI5
aI15
atRp2958
sg15
I14400
sg16
g12
((lp2959
g2948
ag1
(g8
g3
NtRp2960
(dp2961
g11
g12
((lp2962
I2
aI15
atRp2963
sg15
I17575
sg16
g12
((lp2964
g2942
ag9
atRp2965
sg18
g12
((lp2966
g1
(g8
g3
NtRp2967
(dp2968
g11
g12
((lp2969
I2
aI3
aI15
atRp2970
sg15
I11275
sg16
g12
((lp2971
g1
(g8
g3
NtRp2972
(dp2973
g11
g12
((lp2974
I3
aI15
atRp2975
sg15
I12800
sg16
g12
((lp2976
g2942
ag36
atRp2977
sg18
g12
((lp2978
g2967
ag1
(g8
g3
NtRp2979
(dp2980
g11
g12
((lp2981
I1
aI3
aI15
atRp2982
sg15
I27975
sg16
g12
((lp2983
g2972
ag348
ag1
(g8
g3
NtRp2984
(dp2985
g11
g12
((lp2986
I1
aI15
atRp2987
sg15
I25850
sg16
g12
((lp2988
g92
ag2942
atRp2989
sg18
g12
((lp2990
g1
(g8
g3
NtRp2991
(dp2992
g11
g12
((lp2993
I1
aI4
aI15
atRp2994
sg15
I67025
sg16
g12
((lp2995
g2984
ag960
ag2937
atRp2996
sg18
g12
((lp2997
g2927
atRp2998
sbag1
(g8
g3
NtRp2999
(dp3000
g11
g12
((lp3001
I1
aI5
aI15
atRp3002
sg15
I11250
sg16
g12
((lp3003
g2948
ag552
ag2984
atRp3004
sg18
g12
((lp3005
g1
(g8
g3
NtRp3006
(dp3007
g11
g12
((lp3008
I1
aI2
aI5
aI15
atRp3009
sg15
I10400
sg16
g12
((lp3010
g2955
ag1
(g8
g3
NtRp3011
(dp3012
g11
g12
((lp3013
I1
aI2
aI15
atRp3014
sg15
I20575
sg16
g12
((lp3015
g87
ag2960
ag2984
atRp3016
sg18
g12
((lp3017
g1
(g8
g3
NtRp3018
(dp3019
g11
g12
((lp3020
I1
aI2
aI3
aI15
atRp3021
sg15
I11425
sg16
g12
((lp3022
g2967
ag379
ag2979
ag3011
atRp3023
sg18
g12
((ltRp3024
sbag2927
ag3006
atRp3025
sbag547
ag2999
atRp3026
sg18
g12
((ltRp3027
sbatRp3028
sbag2979
ag3011
atRp3029
sbatRp3030
sg18
g12
((lp3031
g3018
atRp3032
sbatRp3033
sbag2960
ag317
atRp3034
sg18
g12
((lp3035
g3018
atRp3036
sbag2955
ag3011
ag2932
atRp3037
sbag540
atRp3038
sg18
g12
((lp3039
g3006
atRp3040
sbag2999
atRp3041
sbag2960
ag2937
ag2984
ag2972
atRp3042
sbag58
atRp3043
sg18
g12
((lp3044
g2991
ag2932
atRp3045
sbag2960
atRp3046
sg18
g12
((lp3047
g2927
atRp3048
sbag3011
ag2991
atRp3049
sg18
g12
((ltRp3050
sbag1165
ag2006
ag1475
ag1
(g8
g3
NtRp3051
(dp3052
g11
g12
((lp3053
I16
aI1
aI2
aI4
atRp3054
sg15
I10475
sg16
g12
((lp3055
g1
(g8
g3
NtRp3056
(dp3057
g11
g12
((lp3058
I16
aI1
aI4
atRp3059
sg15
I10150
sg16
g12
((lp3060
g1
(g8
g3
NtRp3061
(dp3062
g11
g12
((lp3063
I16
aI1
atRp3064
sg15
I12725
sg16
g12
((lp3065
g92
ag25
atRp3066
sg18
g12
((lp3067
g3056
ag1
(g8
g3
NtRp3068
(dp3069
g11
g12
((lp3070
I16
aI1
aI3
atRp3071
sg15
I18200
sg16
g12
((lp3072
g31
ag348
ag3061
atRp3073
sg18
g12
((lp3074
g1
(g8
g3
NtRp3075
(dp3076
g11
g12
((lp3077
I16
aI1
aI2
aI3
atRp3078
sg15
I12550
sg16
g12
((lp3079
g1
(g8
g3
NtRp3080
(dp3081
g11
g12
((lp3082
I16
aI1
aI2
atRp3083
sg15
I20575
sg16
g12
((lp3084
g87
ag20
ag3061
atRp3085
sg18
g12
((lp3086
g3075
ag1
(g8
g3
NtRp3087
(dp3088
g11
g12
((lp3089
I16
aI1
aI2
aI5
atRp3090
sg15
I19700
sg16
g12
((lp3091
g3080
ag1
(g8
g3
NtRp3092
(dp3093
g11
g12
((lp3094
I16
aI1
aI5
atRp3095
sg15
I13400
sg16
g12
((lp3096
g1
(g8
g3
NtRp3097
(dp3098
g11
g12
((lp3099
I16
aI5
atRp3100
sg15
I13875
sg16
g12
((lp3101
g25
ag136
atRp3102
sg18
g12
((lp3103
g3092
ag1
(g8
g3
NtRp3104
(dp3105
g11
g12
((lp3106
I16
aI2
aI5
atRp3107
sg15
I10175
sg16
g12
((lp3108
g540
ag20
ag3097
atRp3109
sg18
g12
((lp3110
g3087
atRp3111
sbatRp3112
sbag552
ag3061
atRp3113
sg18
g12
((lp3114
g3087
atRp3115
sbag547
ag3104
atRp3116
sg18
g12
((ltRp3117
sbag3051
atRp3118
sbag3068
ag379
ag1
(g8
g3
NtRp3119
(dp3120
g11
g12
((lp3121
I16
aI2
aI3
atRp3122
sg15
I13825
sg16
g12
((lp3123
g317
ag20
ag31
atRp3124
sg18
g12
((lp3125
g3075
atRp3126
sbatRp3127
sg18
g12
((ltRp3128
sbatRp3129
sbag3080
ag3092
atRp3130
sbag960
ag1
(g8
g3
NtRp3131
(dp3132
g11
g12
((lp3133
I16
aI4
atRp3134
sg15
I10950
sg16
g12
((lp3135
g25
ag58
atRp3136
sg18
g12
((lp3137
g1
(g8
g3
NtRp3138
(dp3139
g11
g12
((lp3140
I16
aI2
aI4
atRp3141
sg15
I12050
sg16
g12
((lp3142
g20
ag246
ag3131
atRp3143
sg18
g12
((lp3144
g3051
atRp3145
sbag3056
atRp3146
sbatRp3147
sg18
g12
((lp3148
g3051
atRp3149
sbag1026
ag3080
ag3138
atRp3150
sg18
g12
((ltRp3151
sbag1517
ag1
(g8
g3
NtRp3152
(dp3153
g11
g12
((lp3154
I1
aI2
aI4
aI18
atRp3155
sg15
I11775
sg16
g12
((lp3156
g1026
ag82
ag1
(g8
g3
NtRp3157
(dp3158
g11
g12
((lp3159
I2
aI4
aI18
atRp3160
sg15
I11125
sg16
g12
((lp3161
g64
ag75
ag246
atRp3162
sg18
g12
((lp3163
g3152
atRp3164
sbag1
(g8
g3
NtRp3165
(dp3166
g11
g12
((lp3167
I1
aI18
aI4
atRp3168
sg15
I15000
sg16
g12
((lp3169
g64
ag960
ag1
(g8
g3
NtRp3170
(dp3171
g11
g12
((lp3172
I1
aI18
atRp3173
sg15
I34650
sg16
g12
((lp3174
g92
ag69
atRp3175
sg18
g12
((lp3176
g3165
ag355
ag82
atRp3177
sbatRp3178
sg18
g12
((lp3179
g3152
atRp3180
sbatRp3181
sg18
g12
((ltRp3182
sbatRp3183
sbag1014
ag1
(g8
g3
NtRp3184
(dp3185
g11
g12
((lp3186
I17
aI2
aI4
atRp3187
sg15
I30925
sg16
g12
((lp3188
g1
(g8
g3
NtRp3189
(dp3190
g11
g12
((lp3191
I17
aI4
atRp3192
sg15
I10550
sg16
g12
((lp3193
g58
ag977
atRp3194
sg18
g12
((lp3195
g967
ag3184
atRp3196
sbag246
ag983
atRp3197
sg18
g12
((lp3198
g1021
atRp3199
sbag967
atRp3200
sg18
g12
((ltRp3201
sbatRp3202
sbatRp3203
sg18
g12
((ltRp3204
sbatRp3205
sbatRp3206
sbatRp3207
sg18
g12
((lp3208
g1009
atRp3209
sbag3184
ag1014
atRp3210
sbag3189
ag995
atRp3211
sbatRp3212
sg18
g12
((lp3213
g967
ag1014
ag1002
atRp3214
sbag960
ag3189
atRp3215
sg18
g12
((lp3216
g1021
atRp3217
sbag1420
ag2223
ag1492
ag2991
ag3056
ag1
(g8
g3
NtRp3218
(dp3219
g11
g12
((lp3220
I1
aI4
aI20
atRp3221
sg15
I10450
sg16
g12
((lp3222
g1
(g8
g3
NtRp3223
(dp3224
g11
g12
((lp3225
I20
aI4
atRp3226
sg15
I11125
sg16
g12
((lp3227
g1
(g8
g3
NtRp3228
(dp3229
g11
g12
((lp3230
I20
atRp3231
sg15
I16274
sg16
g12
((ltRp3232
sg18
g12
((lp3233
g1
(g8
g3
NtRp3234
(dp3235
g11
g12
((lp3236
I20
aI5
atRp3237
sg15
I10375
sg16
g12
((lp3238
g3228
ag136
atRp3239
sg18
g12
((lp3240
g1
(g8
g3
NtRp3241
(dp3242
g11
g12
((lp3243
I1
aI20
aI5
atRp3244
sg15
I23400
sg16
g12
((lp3245
g3234
ag552
ag1
(g8
g3
NtRp3246
(dp3247
g11
g12
((lp3248
I1
aI20
atRp3249
sg15
I23825
sg16
g12
((lp3250
g92
ag3228
atRp3251
sg18
g12
((lp3252
g3218
ag1
(g8
g3
NtRp3253
(dp3254
g11
g12
((lp3255
I1
aI3
aI20
atRp3256
sg15
I20125
sg16
g12
((lp3257
g3246
ag348
ag1
(g8
g3
NtRp3258
(dp3259
g11
g12
((lp3260
I3
aI20
atRp3261
sg15
I27675
sg16
g12
((lp3262
g3228
ag36
atRp3263
sg18
g12
((lp3264
g1
(g8
g3
NtRp3265
(dp3266
g11
g12
((lp3267
I2
aI3
aI20
atRp3268
sg15
I38500
sg16
g12
((lp3269
g317
ag3258
ag1
(g8
g3
NtRp3270
(dp3271
g11
g12
((lp3272
I2
aI20
atRp3273
sg15
I38250
sg16
g12
((lp3274
g3228
ag9
atRp3275
sg18
g12
((lp3276
g3265
ag1
(g8
g3
NtRp3277
(dp3278
g11
g12
((lp3279
I1
aI2
aI20
atRp3280
sg15
I15675
sg16
g12
((lp3281
g87
ag3270
ag3246
atRp3282
sg18
g12
((lp3283
g1
(g8
g3
NtRp3284
(dp3285
g11
g12
((lp3286
I1
aI2
aI3
aI20
atRp3287
sg15
I14625
sg16
g12
((lp3288
g3277
ag3253
ag379
ag3265
atRp3289
sg18
g12
((ltRp3290
sbatRp3291
sbatRp3292
sbatRp3293
sg18
g12
((lp3294
g3284
atRp3295
sbag3253
atRp3296
sbatRp3297
sg18
g12
((lp3298
g3284
atRp3299
sbag3277
ag3241
atRp3300
sbatRp3301
sg18
g12
((ltRp3302
sbatRp3303
sbag3270
ag3246
ag3258
ag3223
atRp3304
sbag58
atRp3305
sg18
g12
((lp3306
g3218
atRp3307
sbag960
ag3246
atRp3308
sg18
g12
((ltRp3309
sbag955
ag1110
ag1
(g8
g3
NtRp3310
(dp3311
g11
g12
((lp3312
I1
aI4
aI21
atRp3313
sg15
I10375
sg16
g12
((lp3314
g1
(g8
g3
NtRp3315
(dp3316
g11
g12
((lp3317
I4
aI21
atRp3318
sg15
I10250
sg16
g12
((lp3319
g1
(g8
g3
NtRp3320
(dp3321
g11
g12
((lp3322
I21
atRp3323
sg15
I15491
sg16
g12
((ltRp3324
sg18
g12
((lp3325
g3315
ag1
(g8
g3
NtRp3326
(dp3327
g11
g12
((lp3328
I1
aI21
atRp3329
sg15
I24600
sg16
g12
((lp3330
g92
ag3320
atRp3331
sg18
g12
((lp3332
g1
(g8
g3
NtRp3333
(dp3334
g11
g12
((lp3335
I1
aI2
aI21
atRp3336
sg15
I16000
sg16
g12
((lp3337
g87
ag3326
ag1
(g8
g3
NtRp3338
(dp3339
g11
g12
((lp3340
I2
aI21
atRp3341
sg15
I34150
sg16
g12
((lp3342
g3320
ag9
atRp3343
sg18
g12
((lp3344
g1
(g8
g3
NtRp3345
(dp3346
g11
g12
((lp3347
I2
aI3
aI21
atRp3348
sg15
I58000
sg16
g12
((lp3349
g317
ag1
(g8
g3
NtRp3350
(dp3351
g11
g12
((lp3352
I3
aI21
atRp3353
sg15
I24150
sg16
g12
((lp3354
g3320
ag36
atRp3355
sg18
g12
((lp3356
g3345
ag1
(g8
g3
NtRp3357
(dp3358
g11
g12
((lp3359
I1
aI3
aI21
atRp3360
sg15
I12900
sg16
g12
((lp3361
g3326
ag348
ag3350
atRp3362
sg18
g12
((lp3363
g1
(g8
g3
NtRp3364
(dp3365
g11
g12
((lp3366
I1
aI2
aI3
aI21
atRp3367
sg15
I12650
sg16
g12
((lp3368
g3345
ag3357
ag379
ag3333
atRp3369
sg18
g12
((ltRp3370
sbatRp3371
sbatRp3372
sbag3338
atRp3373
sg18
g12
((lp3374
g3364
atRp3375
sbag3333
atRp3376
sbatRp3377
sg18
g12
((lp3378
g3364
atRp3379
sbag3310
ag3357
atRp3380
sbag3350
ag3338
atRp3381
sbag58
atRp3382
sg18
g12
((lp3383
g3310
atRp3384
sbag960
ag3326
atRp3385
sg18
g12
((ltRp3386
sbag1026
ag1
(g8
g3
NtRp3387
(dp3388
g11
g12
((lp3389
I1
aI19
aI4
atRp3390
sg15
I10100
sg16
g12
((lp3391
g1
(g8
g3
NtRp3392
(dp3393
g11
g12
((lp3394
I19
aI4
atRp3395
sg15
I15425
sg16
g12
((lp3396
g1
(g8
g3
NtRp3397
(dp3398
g11
g12
((lp3399
I19
atRp3400
sg15
I17061
sg16
g12
((ltRp3401
sg18
g12
((lp3402
g1
(g8
g3
NtRp3403
(dp3404
g11
g12
((lp3405
I2
aI19
atRp3406
sg15
I20275
sg16
g12
((lp3407
g3397
ag9
atRp3408
sg18
g12
((lp3409
g1
(g8
g3
NtRp3410
(dp3411
g11
g12
((lp3412
I19
aI2
aI3
atRp3413
sg15
I15200
sg16
g12
((lp3414
g3403
ag1
(g8
g3
NtRp3415
(dp3416
g11
g12
((lp3417
I19
aI3
atRp3418
sg15
I19875
sg16
g12
((lp3419
g3397
ag36
atRp3420
sg18
g12
((lp3421
g3410
ag1
(g8
g3
NtRp3422
(dp3423
g11
g12
((lp3424
I19
aI1
aI3
atRp3425
sg15
I12175
sg16
g12
((lp3426
g1
(g8
g3
NtRp3427
(dp3428
g11
g12
((lp3429
I1
aI19
atRp3430
sg15
I15175
sg16
g12
((lp3431
g92
ag3397
atRp3432
sg18
g12
((lp3433
g3387
ag3422
ag1
(g8
g3
NtRp3434
(dp3435
g11
g12
((lp3436
I1
aI2
aI19
atRp3437
sg15
I27975
sg16
g12
((lp3438
g87
ag3427
ag3403
atRp3439
sg18
g12
((lp3440
g1
(g8
g3
NtRp3441
(dp3442
g11
g12
((lp3443
I19
aI1
aI2
aI3
atRp3444
sg15
I16875
sg16
g12
((lp3445
g3410
ag3434
ag379
ag3422
atRp3446
sg18
g12
((ltRp3447
sbatRp3448
sbatRp3449
sbag348
ag3415
atRp3450
sg18
g12
((lp3451
g3441
atRp3452
sbatRp3453
sbag317
atRp3454
sg18
g12
((lp3455
g3441
atRp3456
sbag3434
ag1
(g8
g3
NtRp3457
(dp3458
g11
g12
((lp3459
I2
aI19
aI4
atRp3460
sg15
I17025
sg16
g12
((lp3461
g3403
ag246
ag3392
atRp3462
sg18
g12
((ltRp3463
sbatRp3464
sbag3427
ag3415
ag3392
atRp3465
sbag58
atRp3466
sg18
g12
((lp3467
g3457
ag3387
atRp3468
sbag960
ag3427
atRp3469
sg18
g12
((ltRp3470
sbag2117
ag1
(g8
g3
NtRp3471
(dp3472
g11
g12
((lp3473
I24
aI1
aI4
atRp3474
sg15
I15475
sg16
g12
((lp3475
g1
(g8
g3
NtRp3476
(dp3477
g11
g12
((lp3478
I24
aI1
atRp3479
sg15
I11300
sg16
g12
((lp3480
g92
ag1
(g8
g3
NtRp3481
(dp3482
g11
g12
((lp3483
I24
atRp3484
sg15
I13516
sg16
g12
((ltRp3485
sg18
g12
((lp3486
g1
(g8
g3
NtRp3487
(dp3488
g11
g12
((lp3489
I24
aI4
atRp3490
sg15
I18125
sg16
g12
((lp3491
g58
ag3481
atRp3492
sg18
g12
((lp3493
g3471
atRp3494
sbag1
(g8
g3
NtRp3495
(dp3496
g11
g12
((lp3497
I24
aI3
atRp3498
sg15
I10100
sg16
g12
((lp3499
g36
ag3481
atRp3500
sg18
g12
((lp3501
g1
(g8
g3
NtRp3502
(dp3503
g11
g12
((lp3504
I24
aI2
aI3
atRp3505
sg15
I10050
sg16
g12
((lp3506
g317
ag1
(g8
g3
NtRp3507
(dp3508
g11
g12
((lp3509
I24
aI2
atRp3510
sg15
I12850
sg16
g12
((lp3511
g9
ag3481
atRp3512
sg18
g12
((lp3513
g3502
ag1
(g8
g3
NtRp3514
(dp3515
g11
g12
((lp3516
I24
aI1
aI2
atRp3517
sg15
I10300
sg16
g12
((lp3518
g87
ag3507
ag3476
atRp3519
sg18
g12
((lp3520
g1
(g8
g3
NtRp3521
(dp3522
g11
g12
((lp3523
I24
aI1
aI2
aI3
atRp3524
sg15
I11925
sg16
g12
((lp3525
g3502
ag379
ag1
(g8
g3
NtRp3526
(dp3527
g11
g12
((lp3528
I24
aI1
aI3
atRp3529
sg15
I17075
sg16
g12
((lp3530
g3495
ag348
ag3476
atRp3531
sg18
g12
((lp3532
g3521
atRp3533
sbag3514
atRp3534
sg18
g12
((ltRp3535
sbatRp3536
sbatRp3537
sbag3495
atRp3538
sg18
g12
((lp3539
g3521
atRp3540
sbag3526
atRp3541
sbag3507
ag3476
atRp3542
sbatRp3543
sg18
g12
((lp3544
g3526
ag3514
ag3471
atRp3545
sbag960
ag3487
atRp3546
sg18
g12
((ltRp3547
sbag3165
ag1754
ag1522
ag1922
ag1310
ag1468
atRp3548
sbag708
atRp3549
sg18
g12
((lp3550
g2488
ag1427
ag1463
ag1451
ag950
atRp3551
sbag1110
ag943
atRp3552
sg18
g12
((ltRp3553
sbatRp3554
sbag2744
ag931
atRp3555
sbatRp3556
sg18
g12
((lp3557
g742
ag950
ag926
atRp3558
sbag1218
ag2744
atRp3559
sg18
g12
((lp3560
g2518
atRp3561
sbag2356
ag802
ag914
ag1613
ag1189
ag2428
atRp3562
sbag907
ag1062
ag2838
atRp3563
sg18
g12
((lp3564
g2770
atRp3565
sbag1372
ag2881
ag1045
ag2721
ag1487
atRp3566
sbag895
ag1
(g8
g3
NtRp3567
(dp3568
g11
g12
((lp3569
I1
aI11
aI9
atRp3570
sg15
I11125
sg16
g12
((lp3571
g281
ag900
ag1
(g8
g3
NtRp3572
(dp3573
g11
g12
((lp3574
I9
aI11
atRp3575
sg15
I12800
sg16
g12
((lp3576
g263
ag171
atRp3577
sg18
g12
((lp3578
g3567
atRp3579
sbatRp3580
sg18
g12
((ltRp3581
sbag2838
ag2913
ag1492
ag1038
ag1322
ag2726
atRp3582
sbag888
atRp3583
sg18
g12
((lp3584
g2881
ag2869
ag1499
atRp3585
sbag2886
ag2862
atRp3586
sbag876
ag166
atRp3587
sg18
g12
((lp3588
g1499
atRp3589
sbag1432
ag783
ag1876
ag1420
ag2373
atRp3590
sbag246
atRp3591
sg18
g12
((lp3592
g1293
ag866
ag1439
ag1153
ag2380
atRp3593
sbag463
ag1420
ag1026
atRp3594
sg18
g12
((lp3595
g1172
ag1446
ag1300
ag861
atRp3596
sbag1475
ag2638
ag854
ag2380
atRp3597
sg18
g12
((lp3598
g2570
atRp3599
sbag833
ag2876
ag1184
ag1244
ag2575
atRp3600
sbag826
atRp3601
sg18
g12
((ltRp3602
sbag1744
ag1828
atRp3603
sbag1749
ag814
ag1809
atRp3604
sbag843
ag807
ag487
atRp3605
sg18
g12
((lp3606
g833
atRp3607
sbag1225
ag1628
ag802
ag2638
ag2881
ag1403
ag854
atRp3608
sbag795
ag919
ag1122
atRp3609
sg18
g12
((lp3610
g2363
ag1184
atRp3611
sbag2759
ag2368
atRp3612
sbag1134
ag1146
ag783
ag1122
atRp3613
sbag776
ag876
atRp3614
sg18
g12
((lp3615
g1153
ag2368
ag1117
atRp3616
sbag1110
ag1158
ag943
atRp3617
sbag131
atRp3618
sg18
g12
((lp3619
g2416
ag1105
ag766
atRp3620
sbag1158
ag759
ag535
atRp3621
sg18
g12
((lp3622
g1100
ag2411
atRp3623
sbag1093
ag1141
ag2595
atRp3624
sbag1194
ag747
ag1074
ag1146
ag1666
ag1086
ag1158
ag2811
atRp3625
sbag936
ag672
atRp3626
sg18
g12
((lp3627
g742
ag1201
atRp3628
sbag1086
ag735
ag931
atRp3629
sg18
g12
((lp3630
g2518
atRp3631
sbag2733
ag722
ag1249
ag1676
ag1451
ag2511
ag2476
atRp3632
sbag715
atRp3633
sg18
g12
((ltRp3634
sbatRp3635
sbag2726
ag931
ag955
ag1254
ag276
ag2316
ag703
ag735
ag1218
atRp3636
sbag696
atRp3637
sg18
g12
((lp3638
g2452
ag2488
ag2476
ag1261
atRp3639
sbag1266
ag691
ag2469
ag2457
atRp3640
sbag684
atRp3641
sg18
g12
((lp3642
g2488
ag2533
ag2496
atRp3643
sbag943
ag1432
ag955
ag2538
ag679
atRp3644
sbag246
ag672
atRp3645
sg18
g12
((lp3646
g1439
ag2545
ag1451
ag2496
atRp3647
sbag747
ag2469
ag667
ag1206
ag1681
ag206
ag735
ag727
atRp3648
sbag516
ag660
atRp3649
sg18
g12
((lp3650
g2733
atRp3651
sbag2726
ag655
atRp3652
sbag1211
ag648
atRp3653
sg18
g12
((lp3654
g2721
atRp3655
sbag907
ag1062
ag2886
ag1050
ag1334
ag643
atRp3656
sbatRp3657
sg18
g12
((lp3658
g638
ag1487
atRp3659
sbag631
ag1050
atRp3660
sg18
g12
((lp3661
g1482
atRp3662
sbag2404
ag2380
ag2618
ag1722
ag1905
ag2545
ag2170
ag1475
ag2088
atRp3663
sbag1766
atRp3664
sg18
g12
((lp3665
g1744
atRp3666
sbag826
ag1821
ag838
atRp3667
sbag843
ag607
ag1814
ag819
atRp3668
sbag1759
atRp3669
sg18
g12
((lp3670
g1749
ag626
atRp3671
sbag643
ag2175
ag631
ag2538
ag2081
ag1910
ag1468
ag2397
ag2373
ag1534
ag595
atRp3672
sbag776
ag588
atRp3673
sg18
g12
((lp3674
g2356
ag2416
ag2368
ag2618
atRp3675
sbag583
ag795
ag2744
ag2421
ag919
ag1062
ag1194
atRp3676
sbag1539
atRp3677
sg18
g12
((lp3678
g1613
atRp3679
sbag571
ag1666
atRp3680
sbag564
ag281
atRp3681
sg18
g12
((lp3682
g1613
ag1661
atRp3683
sbag1
(g8
g3
NtRp3684
(dp3685
g11
g12
((lp3686
I1
aI13
aI7
atRp3687
sg15
I10050
sg16
g12
((lp3688
g1
(g8
g3
NtRp3689
(dp3690
g11
g12
((lp3691
I13
aI7
atRp3692
sg15
I22450
sg16
g12
((lp3693
g125
ag47
atRp3694
sg18
g12
((lp3695
g3684
atRp3696
sbag564
ag432
atRp3697
sg18
g12
((ltRp3698
sbag931
ag2309
ag1110
ag919
ag559
ag1122
ag1086
ag2823
ag2054
ag2838
atRp3699
sbatRp3700
sg18
g12
((lp3701
g1093
ag2428
ag1129
ag1105
atRp3702
sbag2023
ag2999
ag3092
ag3241
ag547
ag1322
ag391
ag1582
ag1802
ag1274
ag703
ag1958
ag1310
ag2271
atRp3703
sbag540
atRp3704
sg18
g12
((lp3705
g1965
ag1589
ag386
ag3006
ag1093
ag1833
ag3087
ag2042
ag1305
ag2476
ag1281
ag2242
ag1353
atRp3706
sbag415
ag535
ag1558
ag2247
ag1384
ag2469
ag1778
ag1346
ag3104
ag2955
ag1286
ag2035
ag759
atRp3707
sbatRp3708
sg18
g12
((lp3709
g2404
ag530
ag2496
ag1305
ag1293
ag766
ag1773
atRp3710
sbag161
ag1346
ag523
atRp3711
sg18
g12
((lp3712
g1360
atRp3713
sbag1033
ag638
atRp3714
sbag2862
ag1074
ag667
ag1038
ag511
ag1050
ag1346
atRp3715
sbag177
atRp3716
sg18
g12
((lp3717
g2908
atRp3718
sbag475
ag1778
ag499
ag2811
ag619
ag1766
ag727
atRp3719
sbag211
ag492
atRp3720
sg18
g12
((lp3721
g470
ag838
atRp3722
sbag1876
ag843
ag487
atRp3723
sbatRp3724
sg18
g12
((lp3725
g470
ag814
ag1883
atRp3726
sbag475
ag715
ag2913
ag819
ag1802
ag1754
ag2823
atRp3727
sbag504
atRp3728
sg18
g12
((lp3729
g470
ag826
ag1845
ag1833
ag722
ag2908
ag2806
atRp3730
sbag487
ag499
atRp3731
sg18
g12
((lp3732
g833
atRp3733
sbag2148
ag1646
ag2869
ag866
ag2206
ag1249
ag1281
ag1177
ag854
atRp3734
sbag427
ag451
ag439
atRp3735
sg18
g12
((ltRp3736
sbatRp3737
sbatRp3738
sbag432
atRp3739
sg18
g12
((lp3740
g458
atRp3741
sbag1922
ag3684
ag427
ag1946
ag1958
atRp3742
sbatRp3743
sg18
g12
((lp3744
g458
ag1975
ag1965
ag1929
atRp3745
sbag1980
ag451
ag1934
atRp3746
sbag540
atRp3747
sg18
g12
((lp3748
g1965
atRp3749
sbag1958
ag403
atRp3750
sbag42
ag396
atRp3751
sg18
g12
((lp3752
g1953
atRp3753
sbag2397
ag2457
ag1570
ag391
ag1396
ag2421
ag1334
ag1814
ag2259
ag1384
atRp3754
sbag552
ag348
atRp3755
sg18
g12
((lp3756
g386
ag1577
ag2266
ag2440
ag2452
ag1809
ag1953
ag1403
ag2428
ag1372
atRp3757
sbag547
ag1384
ag379
atRp3758
sg18
g12
((lp3759
g2575
ag2590
ag1828
ag2506
ag1638
ag2563
ag1367
atRp3760
sbag3364
ag374
ag3521
ag1601
ag1189
ag3284
ag1009
ag2511
ag826
ag3441
ag1045
ag2100
ag3075
ag3018
ag1475
ag1975
ag854
ag2288
atRp3761
sbag367
atRp3762
sg18
g12
((ltRp3763
sbatRp3764
sbag355
atRp3765
sbag3170
atRp3766
sg18
g12
((lp3767
g374
atRp3768
sbag3068
ag3253
ag819
ag1218
ag2069
ag1606
ag391
ag1468
ag919
ag807
ag2979
ag907
ag379
ag3422
ag3526
ag3357
ag1946
ag1
(g8
g3
NtRp3769
(dp3770
g11
g12
((lp3771
I1
aI3
aI23
atRp3772
sg15
I18775
sg16
g12
((lp3773
g1
(g8
g3
NtRp3774
(dp3775
g11
g12
((lp3776
I1
aI23
atRp3777
sg15
I20250
sg16
g12
((lp3778
g92
ag1
(g8
g3
NtRp3779
(dp3780
g11
g12
((lp3781
I23
atRp3782
sg15
I14176
sg16
g12
((ltRp3783
sg18
g12
((lp3784
g1
(g8
g3
NtRp3785
(dp3786
g11
g12
((lp3787
I2
aI23
atRp3788
sg15
I13950
sg16
g12
((lp3789
g9
ag3779
atRp3790
sg18
g12
((lp3791
g1
(g8
g3
NtRp3792
(dp3793
g11
g12
((lp3794
I1
aI2
aI23
atRp3795
sg15
I15175
sg16
g12
((lp3796
g87
ag3774
ag3785
atRp3797
sg18
g12
((ltRp3798
sbatRp3799
sbag1
(g8
g3
NtRp3800
(dp3801
g11
g12
((lp3802
I3
aI23
atRp3803
sg15
I11925
sg16
g12
((lp3804
g36
ag3779
atRp3805
sg18
g12
((lp3806
g3769
atRp3807
sbag3774
atRp3808
sbatRp3809
sg18
g12
((lp3810
g3792
ag3769
atRp3811
sbag348
ag3800
atRp3812
sg18
g12
((ltRp3813
sbag1
(g8
g3
NtRp3814
(dp3815
g11
g12
((lp3816
I1
aI3
aI22
atRp3817
sg15
I17500
sg16
g12
((lp3818
g1
(g8
g3
NtRp3819
(dp3820
g11
g12
((lp3821
I1
aI22
atRp3822
sg15
I18800
sg16
g12
((lp3823
g92
ag1
(g8
g3
NtRp3824
(dp3825
g11
g12
((lp3826
I22
atRp3827
sg15
I14601
sg16
g12
((ltRp3828
sg18
g12
((lp3829
g3819
ag1
(g8
g3
NtRp3830
(dp3831
g11
g12
((lp3832
I3
aI22
atRp3833
sg15
I12775
sg16
g12
((lp3834
g3824
ag36
atRp3835
sg18
g12
((lp3836
g3814
atRp3837
sbag1
(g8
g3
NtRp3838
(dp3839
g11
g12
((lp3840
I2
aI22
atRp3841
sg15
I10075
sg16
g12
((lp3842
g3824
ag9
atRp3843
sg18
g12
((lp3844
g1
(g8
g3
NtRp3845
(dp3846
g11
g12
((lp3847
I1
aI2
aI22
atRp3848
sg15
I17025
sg16
g12
((lp3849
g87
ag3838
ag3819
atRp3850
sg18
g12
((ltRp3851
sbatRp3852
sbatRp3853
sbatRp3854
sg18
g12
((lp3855
g3845
ag3814
atRp3856
sbag348
ag3830
atRp3857
sg18
g12
((ltRp3858
sbag343
ag1002
atRp3859
sbag2216
atRp3860
sg18
g12
((lp3861
g2300
ag2266
ag2288
atRp3862
sbag2259
ag2175
ag324
atRp3863
sbag2192
ag317
atRp3864
sg18
g12
((lp3865
g2170
ag2288
atRp3866
sbag990
ag379
ag3119
ag3345
ag3502
ag367
ag1194
ag619
ag3410
ag1980
ag631
ag1206
ag312
ag2093
ag1546
ag1050
ag3265
ag1384
ag2967
atRp3867
sbatRp3868
sg18
g12
((lp3869
g1391
ag2380
ag1237
ag838
ag2857
ag2759
ag854
atRp3870
sbag843
ag1230
ag300
ag1396
ag795
ag2886
ag336
ag2373
ag807
atRp3871
sbag293
ag1539
atRp3872
sg18
g12
((lp3873
g1628
atRp3874
sbag1651
atRp3875
sbag281
atRp3876
sg18
g12
((lp3877
g1646
ag1628
atRp3878
sbag1582
ag571
ag1522
ag1606
ag276
ag3567
ag1594
atRp3879
sbag708
ag269
atRp3880
sg18
g12
((lp3881
g1676
atRp3882
sbag1681
atRp3883
sbag576
ag293
ag1563
ag1527
ag281
ag1539
ag3572
atRp3884
sbag9
atRp3885
sg18
g12
((lp3886
g1558
ag1594
ag253
ag1681
ag1666
ag1651
ag1546
atRp3887
sbag246
ag1527
atRp3888
sg18
g12
((lp3889
g1517
ag1722
atRp3890
sbag2932
ag679
ag631
ag523
ag535
ag3138
ag241
ag871
ag1026
ag2187
ag1934
ag1158
ag3457
ag1766
ag3184
ag3157
atRp3891
sbag223
atRp3892
sg18
g12
((lp3893
g2006
ag2088
atRp3894
sbag2081
ag2117
atRp3895
sbag2028
ag2074
ag2059
ag2016
ag223
ag2138
atRp3896
sbag9
atRp3897
sg18
g12
((lp3898
g2011
ag2035
ag2093
ag218
ag241
atRp3899
sbag2138
ag211
atRp3900
sg18
g12
((lp3901
g2148
atRp3902
sbag2199
ag499
ag2862
ag1286
ag871
ag451
ag1146
ag312
ag206
ag463
ag1651
atRp3903
sbag672
atRp3904
sg18
g12
((lp3905
g1249
ag1237
ag1439
atRp3906
sbag1266
ag1432
ag1254
ag1230
atRp3907
sbag696
ag188
ag684
ag1211
ag2321
ag672
ag708
ag660
ag936
ag269
atRp3908
sbag182
atRp3909
sg18
g12
((lp3910
g715
ag727
atRp3911
sbag2816
ag177
ag612
ag480
ag492
ag1759
ag504
ag1783
atRp3912
sbag171
atRp3913
sg18
g12
((lp3914
g511
ag2913
atRp3915
sbag166
ag1327
ag888
ag1067
ag900
ag648
ag660
ag3572
ag516
atRp3916
sbatRp3917
sg18
g12
((lp3918
g161
ag523
ag643
ag1492
ag883
atRp3919
sbag1327
atRp3920
sg18
g12
((lp3921
g530
ag1317
atRp3922
sbag535
ag691
ag771
ag1790
ag1310
ag2397
ag1700
ag149
atRp3923
sbag876
ag142
atRp3924
sg18
g12
((lp3925
g1415
ag2392
ag1293
atRp3926
sbag1266
ag1396
ag1134
ag1274
ag1286
atRp3927
sbag408
ag3097
ag2028
ag2252
ag154
ag552
ag3234
ag540
ag2948
ag1327
ag1563
ag1783
ag696
ag396
atRp3928
sbatRp3929
sg18
g12
((lp3930
g771
ag1134
ag559
ag759
ag2421
atRp3931
sbag788
ag120
ag752
ag576
ag1067
ag936
ag2816
ag588
ag3689
ag2059
ag564
ag776
atRp3932
sbag114
atRp3933
sg18
g12
((lp3934
g2309
atRp3935
sbag2180
ag2252
ag2321
ag329
ag2192
ag2216
atRp3936
sbag103
atRp3937
sg18
g12
((lp3938
g336
ag2199
ag2211
atRp3939
sbag788
ag142
ag199
ag876
ag293
ag888
ag444
ag492
ag305
ag98
ag2138
ag211
atRp3940
sbatRp3941
sg18
g12
((lp3942
g439
ag895
ag487
ag1122
ag1254
ag463
ag2211
ag1420
ag1274
ag2133
ag807
ag288
atRp3943
sbag2216
ag281
ag3061
ag3170
ag3819
ag3774
ag3246
ag3476
ag3326
ag1
(g8
g3
NtRp3944
(dp3945
g11
g12
((lp3946
I1
aI26
atRp3947
sg15
I26875
sg16
g12
((lp3948
g92
ag1
(g8
g3
NtRp3949
(dp3950
g11
g12
((lp3951
I26
atRp3952
sg15
I12304
sg16
g12
((ltRp3953
sg18
g12
((lp3954
g3944
ag1
(g8
g3
NtRp3955
(dp3956
g11
g12
((lp3957
I2
aI26
atRp3958
sg15
I29300
sg16
g12
((lp3959
g3949
ag9
atRp3960
sg18
g12
((lp3961
g1
(g8
g3
NtRp3962
(dp3963
g11
g12
((lp3964
I1
aI2
aI26
atRp3965
sg15
I11975
sg16
g12
((lp3966
g87
ag3955
ag3944
atRp3967
sg18
g12
((ltRp3968
sbatRp3969
sbatRp3970
sbatRp3971
sg18
g12
((lp3972
g3962
atRp3973
sbag1
(g8
g3
NtRp3974
(dp3975
g11
g12
((lp3976
I1
aI27
atRp3977
sg15
I29300
sg16
g12
((lp3978
g92
ag1
(g8
g3
NtRp3979
(dp3980
g11
g12
((lp3981
I27
atRp3982
sg15
I11885
sg16
g12
((ltRp3983
sg18
g12
((lp3984
g1
(g8
g3
NtRp3985
(dp3986
g11
g12
((lp3987
I2
aI27
atRp3988
sg15
I24750
sg16
g12
((lp3989
g9
ag3979
atRp3990
sg18
g12
((lp3991
g1
(g8
g3
NtRp3992
(dp3993
g11
g12
((lp3994
I1
aI2
aI27
atRp3995
sg15
I13150
sg16
g12
((lp3996
g87
ag3974
ag3985
atRp3997
sg18
g12
((ltRp3998
sbatRp3999
sbag3974
atRp4000
sbatRp4001
sg18
g12
((lp4002
g3992
atRp4003
sbag1
(g8
g3
NtRp4004
(dp4005
g11
g12
((lp4006
I1
aI25
atRp4007
sg15
I31125
sg16
g12
((lp4008
g92
ag1
(g8
g3
NtRp4009
(dp4010
g11
g12
((lp4011
I25
atRp4012
sg15
I12714
sg16
g12
((ltRp4013
sg18
g12
((lp4014
g4004
ag1
(g8
g3
NtRp4015
(dp4016
g11
g12
((lp4017
I25
aI2
atRp4018
sg15
I10375
sg16
g12
((lp4019
g9
ag4009
atRp4020
sg18
g12
((lp4021
g1
(g8
g3
NtRp4022
(dp4023
g11
g12
((lp4024
I1
aI2
aI25
atRp4025
sg15
I18925
sg16
g12
((lp4026
g87
ag4015
ag4004
atRp4027
sg18
g12
((ltRp4028
sbatRp4029
sbatRp4030
sbatRp4031
sg18
g12
((lp4032
g4022
atRp4033
sbag1
(g8
g3
NtRp4034
(dp4035
g11
g12
((lp4036
I1
aI28
atRp4037
sg15
I14500
sg16
g12
((lp4038
g92
ag1
(g8
g3
NtRp4039
(dp4040
g11
g12
((lp4041
I28
atRp4042
sg15
I11395
sg16
g12
((ltRp4043
sg18
g12
((lp4044
g4034
atRp4045
sbatRp4046
sg18
g12
((ltRp4047
sbag1
(g8
g3
NtRp4048
(dp4049
g11
g12
((lp4050
I1
aI29
atRp4051
sg15
I14750
sg16
g12
((lp4052
g92
ag1
(g8
g3
NtRp4053
(dp4054
g11
g12
((lp4055
I29
atRp4056
sg15
I10850
sg16
g12
((ltRp4057
sg18
g12
((lp4058
g4048
atRp4059
sbatRp4060
sg18
g12
((ltRp4061
sbag1
(g8
g3
NtRp4062
(dp4063
g11
g12
((lp4064
I1
aI31
atRp4065
sg15
I15625
sg16
g12
((lp4066
g92
ag1
(g8
g3
NtRp4067
(dp4068
g11
g12
((lp4069
I31
atRp4070
sg15
I10327
sg16
g12
((ltRp4071
sg18
g12
((lp4072
g4062
atRp4073
sbatRp4074
sg18
g12
((ltRp4075
sbag1
(g8
g3
NtRp4076
(dp4077
g11
g12
((lp4078
I1
aI30
atRp4079
sg15
I12500
sg16
g12
((lp4080
g92
ag1
(g8
g3
NtRp4081
(dp4082
g11
g12
((lp4083
I30
atRp4084
sg15
I10579
sg16
g12
((ltRp4085
sg18
g12
((lp4086
g1
(g8
g3
NtRp4087
(dp4088
g11
g12
((lp4089
I2
aI30
atRp4090
sg15
I21200
sg16
g12
((lp4091
g9
ag4081
atRp4092
sg18
g12
((lp4093
g1
(g8
g3
NtRp4094
(dp4095
g11
g12
((lp4096
I1
aI2
aI30
atRp4097
sg15
I22825
sg16
g12
((lp4098
g87
ag4087
ag4076
atRp4099
sg18
g12
((ltRp4100
sbatRp4101
sbag4076
atRp4102
sbatRp4103
sg18
g12
((lp4104
g4094
atRp4105
sbag552
ag480
ag708
ag1
(g8
g3
NtRp4106
(dp4107
g11
g12
((lp4108
I32
aI1
atRp4109
sg15
I10575
sg16
g12
((lp4110
g92
ag1
(g8
g3
NtRp4111
(dp4112
g11
g12
((lp4113
I32
atRp4114
sg15
I10009
sg16
g12
((ltRp4115
sg18
g12
((lp4116
g4106
atRp4117
sbatRp4118
sg18
g12
((ltRp4119
sbag564
ag87
ag348
ag960
ag972
ag2984
ag3427
ag2016
ag432
ag900
atRp4120
sbag9
atRp4121
sg18
g12
((lp4122
g1594
ag475
ag547
ag2235
ag1038
ag1086
ag3845
ag1026
ag4022
ag3962
ag3992
ag3277
ag3333
ag379
ag3792
ag427
ag463
ag3514
ag3080
ag4094
ag3434
ag735
ag82
ag3011
ag2011
ag1014
atRp4123
sbag75
ag3170
atRp4124
sg18
g12
((lp4125
g374
ag3152
atRp4126
sbag367
ag3157
atRp4127
sbag360
ag3170
atRp4128
sbatRp4129
sg18
g12
((lp4130
g3165
ag3157
atRp4131
sbag234
ag166
ag776
ag3189
ag3315
ag600
ag3223
ag876
ag2937
ag246
ag154
ag3487
ag1527
ag684
ag2180
ag1759
ag3131
ag3392
ag960
ag53
atRp4132
sbag47
atRp4133
sg18
g12
((lp4134
g1910
ag1922
ag1934
atRp4135
sbag3689
ag42
ag408
ag444
ag432
ag420
atRp4136
sbatRp4137
sg18
g12
((lp4138
g403
ag1910
ag1980
ag1946
atRp4139
sbag3495
ag3800
ag305
ag588
ag600
ag3415
ag2972
ag329
ag1539
ag2074
ag995
ag3350
ag3830
ag1211
ag360
ag317
ag648
ag396
ag612
ag348
ag3258
atRp4140
sbatRp4141
sg18
g12
((lp4142
g3068
ag3119
atRp4143
sbag3097
ag3061
ag3131
ag20
atRp4144
sbag9
atRp4145
sg18
g12
((lp4146
g3080
ag3138
ag3119
ag3104
atRp4147
sbag246
ag3507
ag504
ag2192
ag983
ag3403
ag2960
ag540
ag75
ag752
ag211
ag223
ag258
ag420
ag4015
ag672
ag516
ag317
ag4087
ag3985
ag3955
ag3338
ag3270
ag3785
ag3838
ag87
atRp4148
sbag36
ag58
ag136
ag92
ag193
ag171
ag182
ag263
ag114
ag47
ag228
ag2942
ag25
ag977
ag69
ag3397
ag3228
ag3320
ag3824
ag3779
ag3481
ag4009
ag3949
ag3979
ag4039
ag4053
ag4081
ag4067
ag4111
ag125
ag103
asS'_topLevel'
p4149
(lp4150
g2570
ag2585
asb.