ccopy_reg
_reconstructor
p1
(ccis.frequents
Frequents
p2
c__builtin__
object
p3
NtRp4
(dp5
S'_singletons'
p6
(lp7
g1
(ccis.frequents
Node
p8
g3
NtRp9
(dp10
S'items'
p11
c__builtin__
set
p12
((lp13
I2
atRp14
sS'frequency'
p15
I89460
sS'parents'
p16
g12
((ltRp17
sS'children'
p18
g12
((lp19
g1
(g8
g3
NtRp20
(dp21
g11
g12
((lp22
I16
aI2
atRp23
sg15
I10475
sg16
g12
((lp24
g1
(g8
g3
NtRp25
(dp26
g11
g12
((lp27
I16
atRp28
sg15
I20163
sg16
g12
((ltRp29
sg18
g12
((lp30
g1
(g8
g3
NtRp31
(dp32
g11
g12
((lp33
I16
aI5
atRp34
sg15
I13100
sg16
g12
((lp35
g1
(g8
g3
NtRp36
(dp37
g11
g12
((lp38
I5
atRp39
sg15
I55474
sg16
g12
((ltRp40
sg18
g12
((lp41
g1
(g8
g3
NtRp42
(dp43
g11
g12
((lp44
I10
aI5
atRp45
sg15
I18425
sg16
g12
((lp46
g36
ag1
(g8
g3
NtRp47
(dp48
g11
g12
((lp49
I10
atRp50
sg15
I31741
sg16
g12
((ltRp51
sg18
g12
((lp52
g1
(g8
g3
NtRp53
(dp54
g11
g12
((lp55
I10
aI7
atRp56
sg15
I17250
sg16
g12
((lp57
g47
ag1
(g8
g3
NtRp58
(dp59
g11
g12
((lp60
I7
atRp61
sg15
I43039
sg16
g12
((ltRp62
sg18
g12
((lp63
g53
ag1
(g8
g3
NtRp64
(dp65
g11
g12
((lp66
I1
aI7
atRp67
sg15
I41075
sg16
g12
((lp68
g58
ag1
(g8
g3
NtRp69
(dp70
g11
g12
((lp71
I1
atRp72
sg15
I99316
sg16
g12
((ltRp73
sg18
g12
((lp74
g1
(g8
g3
NtRp75
(dp76
g11
g12
((lp77
I1
aI31
atRp78
sg15
I11225
sg16
g12
((lp79
g1
(g8
g3
NtRp80
(dp81
g11
g12
((lp82
I31
atRp83
sg15
I10327
sg16
g12
((ltRp84
sg18
g12
((lp85
g75
atRp86
sbag69
atRp87
sg18
g12
((ltRp88
sbag1
(g8
g3
NtRp89
(dp90
g11
g12
((lp91
I24
aI1
atRp92
sg15
I10850
sg16
g12
((lp93
g69
ag1
(g8
g3
NtRp94
(dp95
g11
g12
((lp96
I24
atRp97
sg15
I13516
sg16
g12
((ltRp98
sg18
g12
((lp99
g1
(g8
g3
NtRp100
(dp101
g11
g12
((lp102
I24
aI2
atRp103
sg15
I13300
sg16
g12
((lp104
g9
ag94
atRp105
sg18
g12
((lp106
g1
(g8
g3
NtRp107
(dp108
g11
g12
((lp109
I24
aI1
aI2
atRp110
sg15
I16325
sg16
g12
((lp111
g1
(g8
g3
NtRp112
(dp113
g11
g12
((lp114
I1
aI2
atRp115
sg15
I89400
sg16
g12
((lp116
g9
ag69
atRp117
sg18
g12
((lp118
g1
(g8
g3
NtRp119
(dp120
g11
g12
((lp121
I1
aI2
aI14
atRp122
sg15
I20450
sg16
g12
((lp123
g112
ag1
(g8
g3
NtRp124
(dp125
g11
g12
((lp126
I1
aI14
atRp127
sg15
I31375
sg16
g12
((lp128
g69
ag1
(g8
g3
NtRp129
(dp130
g11
g12
((lp131
I14
atRp132
sg15
I23061
sg16
g12
((ltRp133
sg18
g12
((lp134
g1
(g8
g3
NtRp135
(dp136
g11
g12
((lp137
I5
aI14
atRp138
sg15
I12875
sg16
g12
((lp139
g36
ag129
atRp140
sg18
g12
((lp141
g1
(g8
g3
NtRp142
(dp143
g11
g12
((lp144
I1
aI5
aI14
atRp145
sg15
I10150
sg16
g12
((lp146
g1
(g8
g3
NtRp147
(dp148
g11
g12
((lp149
I1
aI5
atRp150
sg15
I55550
sg16
g12
((lp151
g36
ag69
atRp152
sg18
g12
((lp153
g1
(g8
g3
NtRp154
(dp155
g11
g12
((lp156
I1
aI3
aI5
atRp157
sg15
I13075
sg16
g12
((lp158
g147
ag1
(g8
g3
NtRp159
(dp160
g11
g12
((lp161
I3
aI5
atRp162
sg15
I14800
sg16
g12
((lp163
g36
ag1
(g8
g3
NtRp164
(dp165
g11
g12
((lp166
I3
atRp167
sg15
I76272
sg16
g12
((ltRp168
sg18
g12
((lp169
g1
(g8
g3
NtRp170
(dp171
g11
g12
((lp172
I3
aI6
atRp173
sg15
I12425
sg16
g12
((lp174
g164
ag1
(g8
g3
NtRp175
(dp176
g11
g12
((lp177
I6
atRp178
sg15
I48664
sg16
g12
((ltRp179
sg18
g12
((lp180
g1
(g8
g3
NtRp181
(dp182
g11
g12
((lp183
I5
aI6
atRp184
sg15
I16075
sg16
g12
((lp185
g36
ag175
atRp186
sg18
g12
((lp187
g1
(g8
g3
NtRp188
(dp189
g11
g12
((lp190
I3
aI5
aI6
atRp191
sg15
I36725
sg16
g12
((lp192
g181
ag159
ag170
atRp193
sg18
g12
((lp194
g1
(g8
g3
NtRp195
(dp196
g11
g12
((lp197
I2
aI3
aI5
aI6
atRp198
sg15
I12225
sg16
g12
((lp199
g188
ag1
(g8
g3
NtRp200
(dp201
g11
g12
((lp202
I2
aI3
aI5
atRp203
sg15
I22375
sg16
g12
((lp204
g159
ag1
(g8
g3
NtRp205
(dp206
g11
g12
((lp207
I2
aI3
atRp208
sg15
I49025
sg16
g12
((lp209
g9
ag164
atRp210
sg18
g12
((lp211
g1
(g8
g3
NtRp212
(dp213
g11
g12
((lp214
I19
aI2
aI3
atRp215
sg15
I14075
sg16
g12
((lp216
g1
(g8
g3
NtRp217
(dp218
g11
g12
((lp219
I2
aI19
atRp220
sg15
I19675
sg16
g12
((lp221
g1
(g8
g3
NtRp222
(dp223
g11
g12
((lp224
I19
atRp225
sg15
I17061
sg16
g12
((ltRp226
sg18
g12
((lp227
g217
ag1
(g8
g3
NtRp228
(dp229
g11
g12
((lp230
I1
aI19
atRp231
sg15
I19000
sg16
g12
((lp232
g222
ag69
atRp233
sg18
g12
((lp234
g1
(g8
g3
NtRp235
(dp236
g11
g12
((lp237
I1
aI19
aI4
atRp238
sg15
I11875
sg16
g12
((lp239
g1
(g8
g3
NtRp240
(dp241
g11
g12
((lp242
I1
aI4
atRp243
sg15
I64475
sg16
g12
((lp244
g1
(g8
g3
NtRp245
(dp246
g11
g12
((lp247
I4
atRp248
sg15
I64835
sg16
g12
((ltRp249
sg18
g12
((lp250
g1
(g8
g3
NtRp251
(dp252
g11
g12
((lp253
I4
aI14
atRp254
sg15
I11675
sg16
g12
((lp255
g245
ag129
atRp256
sg18
g12
((lp257
g1
(g8
g3
NtRp258
(dp259
g11
g12
((lp260
I3
aI4
aI14
atRp261
sg15
I10475
sg16
g12
((lp262
g251
ag1
(g8
g3
NtRp263
(dp264
g11
g12
((lp265
I3
aI4
atRp266
sg15
I17925
sg16
g12
((lp267
g164
ag245
atRp268
sg18
g12
((lp269
g1
(g8
g3
NtRp270
(dp271
g11
g12
((lp272
I11
aI3
aI4
atRp273
sg15
I10925
sg16
g12
((lp274
g1
(g8
g3
NtRp275
(dp276
g11
g12
((lp277
I11
aI3
atRp278
sg15
I10850
sg16
g12
((lp279
g164
ag1
(g8
g3
NtRp280
(dp281
g11
g12
((lp282
I11
atRp283
sg15
I28601
sg16
g12
((ltRp284
sg18
g12
((lp285
g1
(g8
g3
NtRp286
(dp287
g11
g12
((lp288
I2
aI11
atRp289
sg15
I15800
sg16
g12
((lp290
g9
ag280
atRp291
sg18
g12
((lp292
g1
(g8
g3
NtRp293
(dp294
g11
g12
((lp295
I1
aI2
aI11
atRp296
sg15
I15450
sg16
g12
((lp297
g112
ag1
(g8
g3
NtRp298
(dp299
g11
g12
((lp300
I1
aI11
atRp301
sg15
I17175
sg16
g12
((lp302
g69
ag280
atRp303
sg18
g12
((lp304
g1
(g8
g3
NtRp305
(dp306
g11
g12
((lp307
I3
aI1
aI11
atRp308
sg15
I11725
sg16
g12
((lp309
g1
(g8
g3
NtRp310
(dp311
g11
g12
((lp312
I1
aI3
atRp313
sg15
I74275
sg16
g12
((lp314
g164
ag69
atRp315
sg18
g12
((lp316
g1
(g8
g3
NtRp317
(dp318
g11
g12
((lp319
I1
aI3
aI17
atRp320
sg15
I21700
sg16
g12
((lp321
g310
ag1
(g8
g3
NtRp322
(dp323
g11
g12
((lp324
I1
aI17
atRp325
sg15
I14275
sg16
g12
((lp326
g1
(g8
g3
NtRp327
(dp328
g11
g12
((lp329
I17
atRp330
sg15
I19016
sg16
g12
((ltRp331
sg18
g12
((lp332
g1
(g8
g3
NtRp333
(dp334
g11
g12
((lp335
I17
aI5
atRp336
sg15
I11400
sg16
g12
((lp337
g36
ag327
atRp338
sg18
g12
((lp339
g1
(g8
g3
NtRp340
(dp341
g11
g12
((lp342
I1
aI5
aI17
atRp343
sg15
I10125
sg16
g12
((lp344
g147
ag322
ag333
atRp345
sg18
g12
((ltRp346
sbatRp347
sbag1
(g8
g3
NtRp348
(dp349
g11
g12
((lp350
I17
aI2
atRp351
sg15
I11425
sg16
g12
((lp352
g327
ag9
atRp353
sg18
g12
((lp354
g1
(g8
g3
NtRp355
(dp356
g11
g12
((lp357
I1
aI2
aI17
atRp358
sg15
I13275
sg16
g12
((lp359
g112
ag322
ag348
atRp360
sg18
g12
((lp361
g1
(g8
g3
NtRp362
(dp363
g11
g12
((lp364
I1
aI2
aI3
aI17
atRp365
sg15
I10425
sg16
g12
((lp366
g355
ag317
ag1
(g8
g3
NtRp367
(dp368
g11
g12
((lp369
I1
aI2
aI3
atRp370
sg15
I14100
sg16
g12
((lp371
g112
ag205
ag310
atRp372
sg18
g12
((lp373
g1
(g8
g3
NtRp374
(dp375
g11
g12
((lp376
I1
aI2
aI3
aI13
atRp377
sg15
I14125
sg16
g12
((lp378
g1
(g8
g3
NtRp379
(dp380
g11
g12
((lp381
I2
aI3
aI13
atRp382
sg15
I13625
sg16
g12
((lp383
g1
(g8
g3
NtRp384
(dp385
g11
g12
((lp386
I3
aI13
atRp387
sg15
I11125
sg16
g12
((lp388
g164
ag1
(g8
g3
NtRp389
(dp390
g11
g12
((lp391
I13
atRp392
sg15
I24819
sg16
g12
((ltRp393
sg18
g12
((lp394
g1
(g8
g3
NtRp395
(dp396
g11
g12
((lp397
I1
aI13
atRp398
sg15
I25975
sg16
g12
((lp399
g69
ag389
atRp400
sg18
g12
((lp401
g1
(g8
g3
NtRp402
(dp403
g11
g12
((lp404
I1
aI2
aI13
atRp405
sg15
I13000
sg16
g12
((lp406
g112
ag1
(g8
g3
NtRp407
(dp408
g11
g12
((lp409
I2
aI13
atRp410
sg15
I20050
sg16
g12
((lp411
g9
ag389
atRp412
sg18
g12
((lp413
g402
ag379
ag1
(g8
g3
NtRp414
(dp415
g11
g12
((lp416
I2
aI13
aI6
atRp417
sg15
I10125
sg16
g12
((lp418
g1
(g8
g3
NtRp419
(dp420
g11
g12
((lp421
I2
aI6
atRp422
sg15
I32150
sg16
g12
((lp423
g9
ag175
atRp424
sg18
g12
((lp425
g1
(g8
g3
NtRp426
(dp427
g11
g12
((lp428
I2
aI14
aI6
atRp429
sg15
I15725
sg16
g12
((lp430
g1
(g8
g3
NtRp431
(dp432
g11
g12
((lp433
I14
aI6
atRp434
sg15
I17925
sg16
g12
((lp435
g129
ag175
atRp436
sg18
g12
((lp437
g1
(g8
g3
NtRp438
(dp439
g11
g12
((lp440
I1
aI14
aI6
atRp441
sg15
I33175
sg16
g12
((lp442
g1
(g8
g3
NtRp443
(dp444
g11
g12
((lp445
I1
aI6
atRp446
sg15
I49100
sg16
g12
((lp447
g69
ag175
atRp448
sg18
g12
((lp449
g1
(g8
g3
NtRp450
(dp451
g11
g12
((lp452
I1
aI10
aI6
atRp453
sg15
I11850
sg16
g12
((lp454
g443
ag1
(g8
g3
NtRp455
(dp456
g11
g12
((lp457
I1
aI10
atRp458
sg15
I17425
sg16
g12
((lp459
g47
ag69
atRp460
sg18
g12
((lp461
g1
(g8
g3
NtRp462
(dp463
g11
g12
((lp464
I1
aI10
aI9
atRp465
sg15
I10125
sg16
g12
((lp466
g1
(g8
g3
NtRp467
(dp468
g11
g12
((lp469
I1
aI9
atRp470
sg15
I34325
sg16
g12
((lp471
g1
(g8
g3
NtRp472
(dp473
g11
g12
((lp474
I9
atRp475
sg15
I34609
sg16
g12
((ltRp476
sg18
g12
((lp477
g1
(g8
g3
NtRp478
(dp479
g11
g12
((lp480
I9
aI5
atRp481
sg15
I15725
sg16
g12
((lp482
g36
ag472
atRp483
sg18
g12
((lp484
g1
(g8
g3
NtRp485
(dp486
g11
g12
((lp487
I9
aI3
aI5
atRp488
sg15
I25750
sg16
g12
((lp489
g159
ag478
ag1
(g8
g3
NtRp490
(dp491
g11
g12
((lp492
I9
aI3
atRp493
sg15
I11000
sg16
g12
((lp494
g472
ag164
atRp495
sg18
g12
((lp496
g485
ag1
(g8
g3
NtRp497
(dp498
g11
g12
((lp499
I9
aI3
aI4
atRp500
sg15
I14250
sg16
g12
((lp501
g490
ag263
ag1
(g8
g3
NtRp502
(dp503
g11
g12
((lp504
I9
aI4
atRp505
sg15
I13675
sg16
g12
((lp506
g472
ag245
atRp507
sg18
g12
((lp508
g497
ag1
(g8
g3
NtRp509
(dp510
g11
g12
((lp511
I9
aI2
aI4
atRp512
sg15
I13300
sg16
g12
((lp513
g1
(g8
g3
NtRp514
(dp515
g11
g12
((lp516
I9
aI2
atRp517
sg15
I10300
sg16
g12
((lp518
g472
ag9
atRp519
sg18
g12
((lp520
g1
(g8
g3
NtRp521
(dp522
g11
g12
((lp523
I9
aI2
aI5
atRp524
sg15
I11825
sg16
g12
((lp525
g1
(g8
g3
NtRp526
(dp527
g11
g12
((lp528
I2
aI5
atRp529
sg15
I13500
sg16
g12
((lp530
g36
ag9
atRp531
sg18
g12
((lp532
g1
(g8
g3
NtRp533
(dp534
g11
g12
((lp535
I2
aI4
aI5
atRp536
sg15
I18200
sg16
g12
((lp537
g1
(g8
g3
NtRp538
(dp539
g11
g12
((lp540
I4
aI5
atRp541
sg15
I36425
sg16
g12
((lp542
g36
ag245
atRp543
sg18
g12
((lp544
g1
(g8
g3
NtRp545
(dp546
g11
g12
((lp547
I8
aI4
aI5
atRp548
sg15
I25750
sg16
g12
((lp549
g538
ag1
(g8
g3
NtRp550
(dp551
g11
g12
((lp552
I8
aI4
atRp553
sg15
I37125
sg16
g12
((lp554
g245
ag1
(g8
g3
NtRp555
(dp556
g11
g12
((lp557
I8
atRp558
sg15
I38305
sg16
g12
((ltRp559
sg18
g12
((lp560
g1
(g8
g3
NtRp561
(dp562
g11
g12
((lp563
I8
aI1
atRp564
sg15
I15525
sg16
g12
((lp565
g69
ag555
atRp566
sg18
g12
((lp567
g1
(g8
g3
NtRp568
(dp569
g11
g12
((lp570
I8
aI1
aI3
atRp571
sg15
I23650
sg16
g12
((lp572
g310
ag561
ag1
(g8
g3
NtRp573
(dp574
g11
g12
((lp575
I8
aI3
atRp576
sg15
I44725
sg16
g12
((lp577
g164
ag555
atRp578
sg18
g12
((lp579
g1
(g8
g3
NtRp580
(dp581
g11
g12
((lp582
I8
aI3
aI5
atRp583
sg15
I31075
sg16
g12
((lp584
g159
ag573
ag1
(g8
g3
NtRp585
(dp586
g11
g12
((lp587
I8
aI5
atRp588
sg15
I58575
sg16
g12
((lp589
g36
ag555
atRp590
sg18
g12
((lp591
g545
ag580
ag1
(g8
g3
NtRp592
(dp593
g11
g12
((lp594
I8
aI2
aI5
atRp595
sg15
I24850
sg16
g12
((lp596
g526
ag1
(g8
g3
NtRp597
(dp598
g11
g12
((lp599
I8
aI2
atRp600
sg15
I67275
sg16
g12
((lp601
g9
ag555
atRp602
sg18
g12
((lp603
g1
(g8
g3
NtRp604
(dp605
g11
g12
((lp606
I8
aI2
aI10
atRp607
sg15
I24150
sg16
g12
((lp608
g1
(g8
g3
NtRp609
(dp610
g11
g12
((lp611
I8
aI10
atRp612
sg15
I22125
sg16
g12
((lp613
g47
ag555
atRp614
sg18
g12
((lp615
g604
ag1
(g8
g3
NtRp616
(dp617
g11
g12
((lp618
I8
aI1
aI10
atRp619
sg15
I27350
sg16
g12
((lp620
g561
ag455
ag609
atRp621
sg18
g12
((lp622
g1
(g8
g3
NtRp623
(dp624
g11
g12
((lp625
I8
aI1
aI2
aI10
atRp626
sg15
I16250
sg16
g12
((lp627
g1
(g8
g3
NtRp628
(dp629
g11
g12
((lp630
I8
aI1
aI2
atRp631
sg15
I15350
sg16
g12
((lp632
g112
ag597
ag561
atRp633
sg18
g12
((lp634
g1
(g8
g3
NtRp635
(dp636
g11
g12
((lp637
I8
aI1
aI2
aI7
atRp638
sg15
I10925
sg16
g12
((lp639
g1
(g8
g3
NtRp640
(dp641
g11
g12
((lp642
I8
aI2
aI7
atRp643
sg15
I21950
sg16
g12
((lp644
g597
ag1
(g8
g3
NtRp645
(dp646
g11
g12
((lp647
I2
aI7
atRp648
sg15
I37050
sg16
g12
((lp649
g58
ag9
atRp650
sg18
g12
((lp651
g1
(g8
g3
NtRp652
(dp653
g11
g12
((lp654
I1
aI2
aI7
atRp655
sg15
I10275
sg16
g12
((lp656
g64
ag645
ag112
atRp657
sg18
g12
((lp658
g1
(g8
g3
NtRp659
(dp660
g11
g12
((lp661
I1
aI2
aI11
aI7
atRp662
sg15
I15150
sg16
g12
((lp663
g652
ag1
(g8
g3
NtRp664
(dp665
g11
g12
((lp666
I2
aI11
aI7
atRp667
sg15
I10750
sg16
g12
((lp668
g286
ag645
ag1
(g8
g3
NtRp669
(dp670
g11
g12
((lp671
I11
aI7
atRp672
sg15
I20225
sg16
g12
((lp673
g58
ag280
atRp674
sg18
g12
((lp675
g664
ag1
(g8
g3
NtRp676
(dp677
g11
g12
((lp678
I1
aI11
aI7
atRp679
sg15
I11850
sg16
g12
((lp680
g64
ag669
ag298
atRp681
sg18
g12
((lp682
g659
atRp683
sbatRp684
sbatRp685
sg18
g12
((lp686
g659
atRp687
sbag676
ag293
atRp688
sg18
g12
((ltRp689
sbag1
(g8
g3
NtRp690
(dp691
g11
g12
((lp692
I1
aI2
aI9
aI7
atRp693
sg15
I10300
sg16
g12
((lp694
g1
(g8
g3
NtRp695
(dp696
g11
g12
((lp697
I1
aI2
aI9
atRp698
sg15
I14100
sg16
g12
((lp699
g112
ag514
ag467
atRp700
sg18
g12
((lp701
g1
(g8
g3
NtRp702
(dp703
g11
g12
((lp704
I1
aI2
aI4
aI9
atRp705
sg15
I10425
sg16
g12
((lp706
g695
ag1
(g8
g3
NtRp707
(dp708
g11
g12
((lp709
I1
aI2
aI4
atRp710
sg15
I11025
sg16
g12
((lp711
g240
ag1
(g8
g3
NtRp712
(dp713
g11
g12
((lp714
I2
aI4
atRp715
sg15
I12300
sg16
g12
((lp716
g9
ag245
atRp717
sg18
g12
((lp718
g1
(g8
g3
NtRp719
(dp720
g11
g12
((lp721
I2
aI4
aI13
atRp722
sg15
I17400
sg16
g12
((lp723
g1
(g8
g3
NtRp724
(dp725
g11
g12
((lp726
I4
aI13
atRp727
sg15
I14800
sg16
g12
((lp728
g245
ag389
atRp729
sg18
g12
((lp730
g719
ag1
(g8
g3
NtRp731
(dp732
g11
g12
((lp733
I3
aI4
aI13
atRp734
sg15
I11900
sg16
g12
((lp735
g724
ag263
ag384
atRp736
sg18
g12
((lp737
g1
(g8
g3
NtRp738
(dp739
g11
g12
((lp740
I2
aI3
aI4
aI13
atRp741
sg15
I10125
sg16
g12
((lp742
g379
ag1
(g8
g3
NtRp743
(dp744
g11
g12
((lp745
I2
aI3
aI4
atRp746
sg15
I21300
sg16
g12
((lp747
g205
ag263
ag712
atRp748
sg18
g12
((lp749
g1
(g8
g3
NtRp750
(dp751
g11
g12
((lp752
I4
aI2
aI3
aI12
atRp753
sg15
I10875
sg16
g12
((lp754
g1
(g8
g3
NtRp755
(dp756
g11
g12
((lp757
I12
aI3
aI4
atRp758
sg15
I19900
sg16
g12
((lp759
g1
(g8
g3
NtRp760
(dp761
g11
g12
((lp762
I3
aI12
atRp763
sg15
I10200
sg16
g12
((lp764
g164
ag1
(g8
g3
NtRp765
(dp766
g11
g12
((lp767
I12
atRp768
sg15
I26474
sg16
g12
((ltRp769
sg18
g12
((lp770
g1
(g8
g3
NtRp771
(dp772
g11
g12
((lp773
I12
aI5
atRp774
sg15
I23850
sg16
g12
((lp775
g36
ag765
atRp776
sg18
g12
((lp777
g1
(g8
g3
NtRp778
(dp779
g11
g12
((lp780
I3
aI12
aI5
atRp781
sg15
I11350
sg16
g12
((lp782
g760
ag771
ag159
atRp783
sg18
g12
((lp784
g1
(g8
g3
NtRp785
(dp786
g11
g12
((lp787
I1
aI3
aI12
aI5
atRp788
sg15
I24525
sg16
g12
((lp789
g778
ag1
(g8
g3
NtRp790
(dp791
g11
g12
((lp792
I1
aI3
aI12
atRp793
sg15
I20000
sg16
g12
((lp794
g310
ag1
(g8
g3
NtRp795
(dp796
g11
g12
((lp797
I1
aI12
atRp798
sg15
I11375
sg16
g12
((lp799
g69
ag765
atRp800
sg18
g12
((lp801
g790
ag1
(g8
g3
NtRp802
(dp803
g11
g12
((lp804
I1
aI12
aI7
atRp805
sg15
I11500
sg16
g12
((lp806
g64
ag795
ag1
(g8
g3
NtRp807
(dp808
g11
g12
((lp809
I12
aI7
atRp810
sg15
I28825
sg16
g12
((lp811
g58
ag765
atRp812
sg18
g12
((lp813
g802
atRp814
sbatRp815
sg18
g12
((ltRp816
sbag1
(g8
g3
NtRp817
(dp818
g11
g12
((lp819
I1
aI2
aI12
atRp820
sg15
I41250
sg16
g12
((lp821
g112
ag795
ag1
(g8
g3
NtRp822
(dp823
g11
g12
((lp824
I2
aI12
atRp825
sg15
I15650
sg16
g12
((lp826
g9
ag765
atRp827
sg18
g12
((lp828
g1
(g8
g3
NtRp829
(dp830
g11
g12
((lp831
I4
aI2
aI12
atRp832
sg15
I10600
sg16
g12
((lp833
g822
ag712
ag1
(g8
g3
NtRp834
(dp835
g11
g12
((lp836
I4
aI12
atRp837
sg15
I25550
sg16
g12
((lp838
g245
ag765
atRp839
sg18
g12
((lp840
g755
ag1
(g8
g3
NtRp841
(dp842
g11
g12
((lp843
I1
aI4
aI12
atRp844
sg15
I12200
sg16
g12
((lp845
g240
ag795
ag834
atRp846
sg18
g12
((lp847
g1
(g8
g3
NtRp848
(dp849
g11
g12
((lp850
I1
aI2
aI4
aI12
atRp851
sg15
I13925
sg16
g12
((lp852
g817
ag829
ag707
ag841
atRp853
sg18
g12
((lp854
g1
(g8
g3
NtRp855
(dp856
g11
g12
((lp857
I1
aI2
aI3
aI4
aI12
atRp858
sg15
I10750
sg16
g12
((lp859
g750
ag1
(g8
g3
NtRp860
(dp861
g11
g12
((lp862
I1
aI3
aI4
aI12
atRp863
sg15
I23025
sg16
g12
((lp864
g755
ag790
ag841
ag1
(g8
g3
NtRp865
(dp866
g11
g12
((lp867
I1
aI3
aI4
atRp868
sg15
I16325
sg16
g12
((lp869
g240
ag263
ag310
atRp870
sg18
g12
((lp871
g1
(g8
g3
NtRp872
(dp873
g11
g12
((lp874
I1
aI10
aI3
aI4
atRp875
sg15
I14100
sg16
g12
((lp876
g1
(g8
g3
NtRp877
(dp878
g11
g12
((lp879
I10
aI3
aI4
atRp880
sg15
I10275
sg16
g12
((lp881
g1
(g8
g3
NtRp882
(dp883
g11
g12
((lp884
I10
aI4
atRp885
sg15
I10850
sg16
g12
((lp886
g47
ag245
atRp887
sg18
g12
((lp888
g1
(g8
g3
NtRp889
(dp890
g11
g12
((lp891
I2
aI4
aI10
atRp892
sg15
I13150
sg16
g12
((lp893
g882
ag1
(g8
g3
NtRp894
(dp895
g11
g12
((lp896
I2
aI10
atRp897
sg15
I10175
sg16
g12
((lp898
g47
ag9
atRp899
sg18
g12
((lp900
g604
ag889
ag1
(g8
g3
NtRp901
(dp902
g11
g12
((lp903
I1
aI2
aI10
atRp904
sg15
I19150
sg16
g12
((lp905
g112
ag894
ag455
atRp906
sg18
g12
((lp907
g1
(g8
g3
NtRp908
(dp909
g11
g12
((lp910
I1
aI2
aI10
aI7
atRp911
sg15
I13600
sg16
g12
((lp912
g901
ag652
ag1
(g8
g3
NtRp913
(dp914
g11
g12
((lp915
I2
aI10
aI7
atRp916
sg15
I10100
sg16
g12
((lp917
g53
ag894
ag645
atRp918
sg18
g12
((lp919
g908
atRp920
sbag1
(g8
g3
NtRp921
(dp922
g11
g12
((lp923
I1
aI10
aI7
atRp924
sg15
I13950
sg16
g12
((lp925
g64
ag455
ag53
atRp926
sg18
g12
((lp927
g1
(g8
g3
NtRp928
(dp929
g11
g12
((lp930
I1
aI10
aI3
aI7
atRp931
sg15
I17150
sg16
g12
((lp932
g921
ag1
(g8
g3
NtRp933
(dp934
g11
g12
((lp935
I10
aI3
aI7
atRp936
sg15
I10150
sg16
g12
((lp937
g53
ag1
(g8
g3
NtRp938
(dp939
g11
g12
((lp940
I3
aI7
atRp941
sg15
I10850
sg16
g12
((lp942
g58
ag164
atRp943
sg18
g12
((lp944
g1
(g8
g3
NtRp945
(dp946
g11
g12
((lp947
I2
aI3
aI7
atRp948
sg15
I16375
sg16
g12
((lp949
g205
ag938
ag645
atRp950
sg18
g12
((lp951
g1
(g8
g3
NtRp952
(dp953
g11
g12
((lp954
I1
aI2
aI3
aI7
atRp955
sg15
I12275
sg16
g12
((lp956
g652
ag945
ag367
ag1
(g8
g3
NtRp957
(dp958
g11
g12
((lp959
I1
aI3
aI7
atRp960
sg15
I20075
sg16
g12
((lp961
g64
ag938
ag310
atRp962
sg18
g12
((lp963
g1
(g8
g3
NtRp964
(dp965
g11
g12
((lp966
I8
aI1
aI3
aI7
atRp967
sg15
I10400
sg16
g12
((lp968
g1
(g8
g3
NtRp969
(dp970
g11
g12
((lp971
I8
aI1
aI7
atRp972
sg15
I15950
sg16
g12
((lp973
g64
ag1
(g8
g3
NtRp974
(dp975
g11
g12
((lp976
I8
aI7
atRp977
sg15
I41725
sg16
g12
((lp978
g58
ag555
atRp979
sg18
g12
((lp980
g640
ag1
(g8
g3
NtRp981
(dp982
g11
g12
((lp983
I8
aI4
aI7
atRp984
sg15
I18425
sg16
g12
((lp985
g1
(g8
g3
NtRp986
(dp987
g11
g12
((lp988
I4
aI7
atRp989
sg15
I27050
sg16
g12
((lp990
g58
ag245
atRp991
sg18
g12
((lp992
g1
(g8
g3
NtRp993
(dp994
g11
g12
((lp995
I1
aI4
aI7
atRp996
sg15
I14100
sg16
g12
((lp997
g986
ag64
ag240
atRp998
sg18
g12
((lp999
g1
(g8
g3
NtRp1000
(dp1001
g11
g12
((lp1002
I1
aI4
aI6
aI7
atRp1003
sg15
I10225
sg16
g12
((lp1004
g1
(g8
g3
NtRp1005
(dp1006
g11
g12
((lp1007
I1
aI6
aI7
atRp1008
sg15
I11625
sg16
g12
((lp1009
g443
ag1
(g8
g3
NtRp1010
(dp1011
g11
g12
((lp1012
I6
aI7
atRp1013
sg15
I15575
sg16
g12
((lp1014
g58
ag175
atRp1015
sg18
g12
((lp1016
g1
(g8
g3
NtRp1017
(dp1018
g11
g12
((lp1019
I2
aI6
aI7
atRp1020
sg15
I48450
sg16
g12
((lp1021
g1010
ag645
ag419
atRp1022
sg18
g12
((lp1023
g1
(g8
g3
NtRp1024
(dp1025
g11
g12
((lp1026
I2
aI4
aI6
aI7
atRp1027
sg15
I15850
sg16
g12
((lp1028
g1017
ag1
(g8
g3
NtRp1029
(dp1030
g11
g12
((lp1031
I2
aI4
aI6
atRp1032
sg15
I10650
sg16
g12
((lp1033
g1
(g8
g3
NtRp1034
(dp1035
g11
g12
((lp1036
I4
aI6
atRp1037
sg15
I32150
sg16
g12
((lp1038
g245
ag175
atRp1039
sg18
g12
((lp1040
g1
(g8
g3
NtRp1041
(dp1042
g11
g12
((lp1043
I8
aI4
aI6
atRp1044
sg15
I14550
sg16
g12
((lp1045
g1034
ag550
ag1
(g8
g3
NtRp1046
(dp1047
g11
g12
((lp1048
I8
aI6
atRp1049
sg15
I50725
sg16
g12
((lp1050
g555
ag175
atRp1051
sg18
g12
((lp1052
g1
(g8
g3
NtRp1053
(dp1054
g11
g12
((lp1055
I8
aI1
aI6
atRp1056
sg15
I21800
sg16
g12
((lp1057
g443
ag561
ag1046
atRp1058
sg18
g12
((lp1059
g1
(g8
g3
NtRp1060
(dp1061
g11
g12
((lp1062
I8
aI1
aI2
aI6
atRp1063
sg15
I13925
sg16
g12
((lp1064
g1053
ag1
(g8
g3
NtRp1065
(dp1066
g11
g12
((lp1067
I1
aI2
aI6
atRp1068
sg15
I11275
sg16
g12
((lp1069
g443
ag419
ag112
atRp1070
sg18
g12
((lp1071
g1
(g8
g3
NtRp1072
(dp1073
g11
g12
((lp1074
I1
aI2
aI12
aI6
atRp1075
sg15
I18900
sg16
g12
((lp1076
g1
(g8
g3
NtRp1077
(dp1078
g11
g12
((lp1079
I1
aI12
aI6
atRp1080
sg15
I18600
sg16
g12
((lp1081
g443
ag795
ag1
(g8
g3
NtRp1082
(dp1083
g11
g12
((lp1084
I12
aI6
atRp1085
sg15
I20175
sg16
g12
((lp1086
g765
ag175
atRp1087
sg18
g12
((lp1088
g1077
ag1
(g8
g3
NtRp1089
(dp1090
g11
g12
((lp1091
I2
aI12
aI6
atRp1092
sg15
I15175
sg16
g12
((lp1093
g822
ag419
ag1082
atRp1094
sg18
g12
((lp1095
g1072
atRp1096
sbatRp1097
sbatRp1098
sg18
g12
((lp1099
g1072
atRp1100
sbag1065
ag1089
ag817
atRp1101
sg18
g12
((ltRp1102
sbag1
(g8
g3
NtRp1103
(dp1104
g11
g12
((lp1105
I1
aI2
aI3
aI6
atRp1106
sg15
I11700
sg16
g12
((lp1107
g1
(g8
g3
NtRp1108
(dp1109
g11
g12
((lp1110
I2
aI3
aI6
atRp1111
sg15
I13975
sg16
g12
((lp1112
g170
ag419
ag205
atRp1113
sg18
g12
((lp1114
g1
(g8
g3
NtRp1115
(dp1116
g11
g12
((lp1117
I9
aI2
aI3
aI6
atRp1118
sg15
I21475
sg16
g12
((lp1119
g1108
ag1
(g8
g3
NtRp1120
(dp1121
g11
g12
((lp1122
I9
aI3
aI6
atRp1123
sg15
I11100
sg16
g12
((lp1124
g170
ag490
ag1
(g8
g3
NtRp1125
(dp1126
g11
g12
((lp1127
I9
aI6
atRp1128
sg15
I18500
sg16
g12
((lp1129
g472
ag175
atRp1130
sg18
g12
((lp1131
g1
(g8
g3
NtRp1132
(dp1133
g11
g12
((lp1134
I1
aI6
aI9
atRp1135
sg15
I19150
sg16
g12
((lp1136
g443
ag1125
ag467
atRp1137
sg18
g12
((lp1138
g1
(g8
g3
NtRp1139
(dp1140
g11
g12
((lp1141
I1
aI3
aI6
aI9
atRp1142
sg15
I19950
sg16
g12
((lp1143
g1
(g8
g3
NtRp1144
(dp1145
g11
g12
((lp1146
I1
aI3
aI9
atRp1147
sg15
I15350
sg16
g12
((lp1148
g310
ag490
ag467
atRp1149
sg18
g12
((lp1150
g1139
ag1
(g8
g3
NtRp1151
(dp1152
g11
g12
((lp1153
I1
aI3
aI4
aI9
atRp1154
sg15
I14100
sg16
g12
((lp1155
g497
ag865
ag1
(g8
g3
NtRp1156
(dp1157
g11
g12
((lp1158
I1
aI4
aI9
atRp1159
sg15
I10650
sg16
g12
((lp1160
g240
ag502
ag467
atRp1161
sg18
g12
((lp1162
g702
ag1151
ag1
(g8
g3
NtRp1163
(dp1164
g11
g12
((lp1165
I1
aI4
aI5
aI9
atRp1166
sg15
I11775
sg16
g12
((lp1167
g1
(g8
g3
NtRp1168
(dp1169
g11
g12
((lp1170
I1
aI4
aI5
atRp1171
sg15
I13050
sg16
g12
((lp1172
g538
ag147
ag240
atRp1173
sg18
g12
((lp1174
g1
(g8
g3
NtRp1175
(dp1176
g11
g12
((lp1177
I1
aI4
aI5
aI7
atRp1178
sg15
I28400
sg16
g12
((lp1179
g1
(g8
g3
NtRp1180
(dp1181
g11
g12
((lp1182
I4
aI5
aI7
atRp1183
sg15
I21625
sg16
g12
((lp1184
g986
ag1
(g8
g3
NtRp1185
(dp1186
g11
g12
((lp1187
I5
aI7
atRp1188
sg15
I10950
sg16
g12
((lp1189
g36
ag58
atRp1190
sg18
g12
((lp1191
g1180
ag1
(g8
g3
NtRp1192
(dp1193
g11
g12
((lp1194
I5
aI6
aI7
atRp1195
sg15
I11000
sg16
g12
((lp1196
g181
ag1010
ag1185
atRp1197
sg18
g12
((lp1198
g1
(g8
g3
NtRp1199
(dp1200
g11
g12
((lp1201
I1
aI5
aI6
aI7
atRp1202
sg15
I15800
sg16
g12
((lp1203
g1005
ag1192
ag1
(g8
g3
NtRp1204
(dp1205
g11
g12
((lp1206
I1
aI5
aI7
atRp1207
sg15
I10675
sg16
g12
((lp1208
g147
ag1185
ag64
atRp1209
sg18
g12
((lp1210
g1
(g8
g3
NtRp1211
(dp1212
g11
g12
((lp1213
I1
aI2
aI5
aI7
atRp1214
sg15
I13025
sg16
g12
((lp1215
g652
ag1204
ag1
(g8
g3
NtRp1216
(dp1217
g11
g12
((lp1218
I2
aI5
aI7
atRp1219
sg15
I32575
sg16
g12
((lp1220
g1185
ag645
ag526
atRp1221
sg18
g12
((lp1222
g1211
ag1
(g8
g3
NtRp1223
(dp1224
g11
g12
((lp1225
I2
aI3
aI5
aI7
atRp1226
sg15
I12225
sg16
g12
((lp1227
g1216
ag200
ag1
(g8
g3
NtRp1228
(dp1229
g11
g12
((lp1230
I3
aI5
aI7
atRp1231
sg15
I31775
sg16
g12
((lp1232
g1185
ag938
ag159
atRp1233
sg18
g12
((lp1234
g1
(g8
g3
NtRp1235
(dp1236
g11
g12
((lp1237
I3
aI4
aI5
aI7
atRp1238
sg15
I12700
sg16
g12
((lp1239
g1
(g8
g3
NtRp1240
(dp1241
g11
g12
((lp1242
I3
aI4
aI5
atRp1243
sg15
I11700
sg16
g12
((lp1244
g538
ag263
ag159
atRp1245
sg18
g12
((lp1246
g1235
ag1
(g8
g3
NtRp1247
(dp1248
g11
g12
((lp1249
I8
aI3
aI4
aI5
atRp1250
sg15
I14125
sg16
g12
((lp1251
g1240
ag1
(g8
g3
NtRp1252
(dp1253
g11
g12
((lp1254
I8
aI3
aI4
atRp1255
sg15
I10925
sg16
g12
((lp1256
g573
ag263
ag550
atRp1257
sg18
g12
((lp1258
g1247
ag1
(g8
g3
NtRp1259
(dp1260
g11
g12
((lp1261
I8
aI2
aI3
aI4
atRp1262
sg15
I11875
sg16
g12
((lp1263
g1252
ag743
ag1
(g8
g3
NtRp1264
(dp1265
g11
g12
((lp1266
I8
aI2
aI3
atRp1267
sg15
I10475
sg16
g12
((lp1268
g205
ag597
ag573
atRp1269
sg18
g12
((lp1270
g1
(g8
g3
NtRp1271
(dp1272
g11
g12
((lp1273
I8
aI2
aI3
aI5
atRp1274
sg15
I10750
sg16
g12
((lp1275
g200
ag580
ag1264
ag592
atRp1276
sg18
g12
((lp1277
g1
(g8
g3
NtRp1278
(dp1279
g11
g12
((lp1280
I8
aI1
aI2
aI3
aI5
atRp1281
sg15
I10600
sg16
g12
((lp1282
g1271
ag1
(g8
g3
NtRp1283
(dp1284
g11
g12
((lp1285
I8
aI1
aI2
aI5
atRp1286
sg15
I11800
sg16
g12
((lp1287
g628
ag1
(g8
g3
NtRp1288
(dp1289
g11
g12
((lp1290
I1
aI2
aI5
atRp1291
sg15
I17725
sg16
g12
((lp1292
g147
ag526
ag112
atRp1293
sg18
g12
((lp1294
g1
(g8
g3
NtRp1295
(dp1296
g11
g12
((lp1297
I1
aI2
aI3
aI5
atRp1298
sg15
I18475
sg16
g12
((lp1299
g1288
ag200
ag367
ag154
atRp1300
sg18
g12
((lp1301
g1
(g8
g3
NtRp1302
(dp1303
g11
g12
((lp1304
I1
aI2
aI3
aI4
aI5
atRp1305
sg15
I12550
sg16
g12
((lp1306
g1
(g8
g3
NtRp1307
(dp1308
g11
g12
((lp1309
I1
aI2
aI4
aI5
atRp1310
sg15
I11000
sg16
g12
((lp1311
g1288
ag707
ag1168
ag533
atRp1312
sg18
g12
((lp1313
g1
(g8
g3
NtRp1314
(dp1315
g11
g12
((lp1316
I1
aI2
aI4
aI5
aI6
atRp1317
sg15
I12600
sg16
g12
((lp1318
g1
(g8
g3
NtRp1319
(dp1320
g11
g12
((lp1321
I1
aI2
aI5
aI6
atRp1322
sg15
I14250
sg16
g12
((lp1323
g1288
ag1065
ag1
(g8
g3
NtRp1324
(dp1325
g11
g12
((lp1326
I2
aI5
aI6
atRp1327
sg15
I28675
sg16
g12
((lp1328
g181
ag419
ag526
atRp1329
sg18
g12
((lp1330
g1319
ag1
(g8
g3
NtRp1331
(dp1332
g11
g12
((lp1333
I2
aI4
aI5
aI6
atRp1334
sg15
I15275
sg16
g12
((lp1335
g533
ag1
(g8
g3
NtRp1336
(dp1337
g11
g12
((lp1338
I4
aI5
aI6
atRp1339
sg15
I15075
sg16
g12
((lp1340
g181
ag1034
ag538
atRp1341
sg18
g12
((lp1342
g1
(g8
g3
NtRp1343
(dp1344
g11
g12
((lp1345
I1
aI4
aI5
aI6
atRp1346
sg15
I23800
sg16
g12
((lp1347
g1
(g8
g3
NtRp1348
(dp1349
g11
g12
((lp1350
I1
aI5
aI6
atRp1351
sg15
I12375
sg16
g12
((lp1352
g181
ag147
ag443
atRp1353
sg18
g12
((lp1354
g1319
ag1199
ag1
(g8
g3
NtRp1355
(dp1356
g11
g12
((lp1357
I1
aI3
aI5
aI6
atRp1358
sg15
I10425
sg16
g12
((lp1359
g154
ag1348
ag1
(g8
g3
NtRp1360
(dp1361
g11
g12
((lp1362
I1
aI3
aI6
atRp1363
sg15
I11950
sg16
g12
((lp1364
g443
ag170
ag310
atRp1365
sg18
g12
((lp1366
g1103
ag1139
ag1
(g8
g3
NtRp1367
(dp1368
g11
g12
((lp1369
I1
aI3
aI6
aI7
atRp1370
sg15
I32200
sg16
g12
((lp1371
g1
(g8
g3
NtRp1372
(dp1373
g11
g12
((lp1374
I3
aI6
aI7
atRp1375
sg15
I16375
sg16
g12
((lp1376
g170
ag938
ag1010
atRp1377
sg18
g12
((lp1378
g1
(g8
g3
NtRp1379
(dp1380
g11
g12
((lp1381
I3
aI4
aI6
aI7
atRp1382
sg15
I13025
sg16
g12
((lp1383
g1
(g8
g3
NtRp1384
(dp1385
g11
g12
((lp1386
I3
aI4
aI7
atRp1387
sg15
I14075
sg16
g12
((lp1388
g986
ag938
ag263
atRp1389
sg18
g12
((lp1390
g1235
ag1379
ag1
(g8
g3
NtRp1391
(dp1392
g11
g12
((lp1393
I2
aI3
aI4
aI7
atRp1394
sg15
I13475
sg16
g12
((lp1395
g1
(g8
g3
NtRp1396
(dp1397
g11
g12
((lp1398
I2
aI4
aI7
atRp1399
sg15
I23625
sg16
g12
((lp1400
g986
ag712
ag645
atRp1401
sg18
g12
((lp1402
g1
(g8
g3
NtRp1403
(dp1404
g11
g12
((lp1405
I1
aI2
aI4
aI7
atRp1406
sg15
I15850
sg16
g12
((lp1407
g652
ag993
ag707
ag1396
atRp1408
sg18
g12
((lp1409
g1
(g8
g3
NtRp1410
(dp1411
g11
g12
((lp1412
I1
aI2
aI4
aI5
aI7
atRp1413
sg15
I14825
sg16
g12
((lp1414
g1211
ag1307
ag1175
ag1
(g8
g3
NtRp1415
(dp1416
g11
g12
((lp1417
I2
aI4
aI5
aI7
atRp1418
sg15
I18450
sg16
g12
((lp1419
g1180
ag533
ag1216
ag1396
atRp1420
sg18
g12
((lp1421
g1410
atRp1422
sbag1403
atRp1423
sg18
g12
((ltRp1424
sbag1
(g8
g3
NtRp1425
(dp1426
g11
g12
((lp1427
I1
aI2
aI4
aI6
aI7
atRp1428
sg15
I11400
sg16
g12
((lp1429
g1000
ag1
(g8
g3
NtRp1430
(dp1431
g11
g12
((lp1432
I1
aI2
aI4
aI6
atRp1433
sg15
I13200
sg16
g12
((lp1434
g1029
ag1065
ag1
(g8
g3
NtRp1435
(dp1436
g11
g12
((lp1437
I1
aI4
aI6
atRp1438
sg15
I10225
sg16
g12
((lp1439
g443
ag1034
ag240
atRp1440
sg18
g12
((lp1441
g1
(g8
g3
NtRp1442
(dp1443
g11
g12
((lp1444
I1
aI3
aI4
aI6
atRp1445
sg15
I14325
sg16
g12
((lp1446
g1
(g8
g3
NtRp1447
(dp1448
g11
g12
((lp1449
I3
aI4
aI6
atRp1450
sg15
I14000
sg16
g12
((lp1451
g1034
ag263
ag170
atRp1452
sg18
g12
((lp1453
g1379
ag1442
ag1
(g8
g3
NtRp1454
(dp1455
g11
g12
((lp1456
I3
aI4
aI5
aI6
atRp1457
sg15
I14975
sg16
g12
((lp1458
g1240
ag188
ag1336
ag1447
atRp1459
sg18
g12
((lp1460
g1
(g8
g3
NtRp1461
(dp1462
g11
g12
((lp1463
I1
aI3
aI4
aI5
aI6
atRp1464
sg15
I10275
sg16
g12
((lp1465
g1442
ag1
(g8
g3
NtRp1466
(dp1467
g11
g12
((lp1468
I1
aI3
aI4
aI5
atRp1469
sg15
I18225
sg16
g12
((lp1470
g154
ag865
ag1168
ag1240
atRp1471
sg18
g12
((lp1472
g1
(g8
g3
NtRp1473
(dp1474
g11
g12
((lp1475
I1
aI3
aI4
aI5
aI7
atRp1476
sg15
I10225
sg16
g12
((lp1477
g1235
ag1175
ag1466
ag1
(g8
g3
NtRp1478
(dp1479
g11
g12
((lp1480
I1
aI3
aI5
aI7
atRp1481
sg15
I11500
sg16
g12
((lp1482
g154
ag1204
ag1228
ag957
atRp1483
sg18
g12
((lp1484
g1473
ag1
(g8
g3
NtRp1485
(dp1486
g11
g12
((lp1487
I1
aI2
aI3
aI5
aI7
atRp1488
sg15
I10325
sg16
g12
((lp1489
g952
ag1211
ag1295
ag1478
ag1223
atRp1490
sg18
g12
((ltRp1491
sbatRp1492
sbag1
(g8
g3
NtRp1493
(dp1494
g11
g12
((lp1495
I1
aI3
aI4
aI7
atRp1496
sg15
I11700
sg16
g12
((lp1497
g957
ag993
ag865
ag1384
atRp1498
sg18
g12
((lp1499
g1473
ag1
(g8
g3
NtRp1500
(dp1501
g11
g12
((lp1502
I1
aI2
aI3
aI4
aI7
atRp1503
sg15
I23625
sg16
g12
((lp1504
g952
ag1403
ag1
(g8
g3
NtRp1505
(dp1506
g11
g12
((lp1507
I1
aI2
aI3
aI4
atRp1508
sg15
I11400
sg16
g12
((lp1509
g743
ag707
ag865
ag367
atRp1510
sg18
g12
((lp1511
g1
(g8
g3
NtRp1512
(dp1513
g11
g12
((lp1514
I1
aI2
aI3
aI4
aI10
atRp1515
sg15
I12175
sg16
g12
((lp1516
g872
ag1
(g8
g3
NtRp1517
(dp1518
g11
g12
((lp1519
I1
aI2
aI4
aI10
atRp1520
sg15
I17075
sg16
g12
((lp1521
g889
ag901
ag707
ag1
(g8
g3
NtRp1522
(dp1523
g11
g12
((lp1524
I1
aI10
aI4
atRp1525
sg15
I16500
sg16
g12
((lp1526
g240
ag455
ag882
atRp1527
sg18
g12
((lp1528
g872
ag1
(g8
g3
NtRp1529
(dp1530
g11
g12
((lp1531
I1
aI10
aI4
aI5
atRp1532
sg15
I11200
sg16
g12
((lp1533
g1
(g8
g3
NtRp1534
(dp1535
g11
g12
((lp1536
I1
aI10
aI5
atRp1537
sg15
I10125
sg16
g12
((lp1538
g147
ag455
ag42
atRp1539
sg18
g12
((lp1540
g1
(g8
g3
NtRp1541
(dp1542
g11
g12
((lp1543
I1
aI10
aI3
aI5
atRp1544
sg15
I21475
sg16
g12
((lp1545
g1534
ag1
(g8
g3
NtRp1546
(dp1547
g11
g12
((lp1548
I10
aI3
aI5
atRp1549
sg15
I12350
sg16
g12
((lp1550
g159
ag1
(g8
g3
NtRp1551
(dp1552
g11
g12
((lp1553
I10
aI3
atRp1554
sg15
I10400
sg16
g12
((lp1555
g47
ag164
atRp1556
sg18
g12
((lp1557
g1
(g8
g3
NtRp1558
(dp1559
g11
g12
((lp1560
I1
aI10
aI3
atRp1561
sg15
I10350
sg16
g12
((lp1562
g310
ag455
ag1551
atRp1563
sg18
g12
((lp1564
g928
ag1
(g8
g3
NtRp1565
(dp1566
g11
g12
((lp1567
I1
aI2
aI3
aI10
atRp1568
sg15
I10775
sg16
g12
((lp1569
g901
ag367
ag1558
ag1
(g8
g3
NtRp1570
(dp1571
g11
g12
((lp1572
I2
aI3
aI10
atRp1573
sg15
I10150
sg16
g12
((lp1574
g205
ag894
ag1551
atRp1575
sg18
g12
((lp1576
g1565
ag1
(g8
g3
NtRp1577
(dp1578
g11
g12
((lp1579
I10
aI3
aI2
aI5
atRp1580
sg15
I15950
sg16
g12
((lp1581
g1546
ag200
ag1
(g8
g3
NtRp1582
(dp1583
g11
g12
((lp1584
I2
aI10
aI5
atRp1585
sg15
I31075
sg16
g12
((lp1586
g526
ag894
ag42
atRp1587
sg18
g12
((lp1588
g1
(g8
g3
NtRp1589
(dp1590
g11
g12
((lp1591
I1
aI2
aI10
aI5
atRp1592
sg15
I12275
sg16
g12
((lp1593
g901
ag1288
ag1582
ag1534
atRp1594
sg18
g12
((lp1595
g1
(g8
g3
NtRp1596
(dp1597
g11
g12
((lp1598
I1
aI2
aI4
aI10
aI5
atRp1599
sg15
I10275
sg16
g12
((lp1600
g1589
ag1517
ag1529
ag1
(g8
g3
NtRp1601
(dp1602
g11
g12
((lp1603
I2
aI4
aI10
aI5
atRp1604
sg15
I10700
sg16
g12
((lp1605
g889
ag533
ag1582
ag1
(g8
g3
NtRp1606
(dp1607
g11
g12
((lp1608
I10
aI4
aI5
atRp1609
sg15
I16075
sg16
g12
((lp1610
g42
ag538
ag882
atRp1611
sg18
g12
((lp1612
g1601
ag1529
atRp1613
sbatRp1614
sg18
g12
((lp1615
g1596
atRp1616
sbag1307
atRp1617
sg18
g12
((ltRp1618
sbag1
(g8
g3
NtRp1619
(dp1620
g11
g12
((lp1621
I1
aI10
aI3
aI2
aI5
atRp1622
sg15
I12100
sg16
g12
((lp1623
g1541
ag1577
ag1565
ag1295
ag1589
atRp1624
sg18
g12
((ltRp1625
sbatRp1626
sbag1601
ag1577
atRp1627
sbag1570
atRp1628
sg18
g12
((lp1629
g1619
atRp1630
sbag1
(g8
g3
NtRp1631
(dp1632
g11
g12
((lp1633
I2
aI3
aI4
aI10
atRp1634
sg15
I13875
sg16
g12
((lp1635
g743
ag877
ag1570
ag889
atRp1636
sg18
g12
((lp1637
g1512
atRp1638
sbag1
(g8
g3
NtRp1639
(dp1640
g11
g12
((lp1641
I2
aI3
aI10
aI6
atRp1642
sg15
I19800
sg16
g12
((lp1643
g1108
ag1
(g8
g3
NtRp1644
(dp1645
g11
g12
((lp1646
I10
aI3
aI6
atRp1647
sg15
I13225
sg16
g12
((lp1648
g170
ag1
(g8
g3
NtRp1649
(dp1650
g11
g12
((lp1651
I10
aI6
atRp1652
sg15
I14300
sg16
g12
((lp1653
g47
ag175
atRp1654
sg18
g12
((lp1655
g1644
ag1
(g8
g3
NtRp1656
(dp1657
g11
g12
((lp1658
I2
aI10
aI6
atRp1659
sg15
I13375
sg16
g12
((lp1660
g894
ag1649
ag419
atRp1661
sg18
g12
((lp1662
g1
(g8
g3
NtRp1663
(dp1664
g11
g12
((lp1665
I1
aI2
aI10
aI6
atRp1666
sg15
I12625
sg16
g12
((lp1667
g901
ag1065
ag450
ag1656
atRp1668
sg18
g12
((lp1669
g1
(g8
g3
NtRp1670
(dp1671
g11
g12
((lp1672
I1
aI2
aI3
aI10
aI6
atRp1673
sg15
I12025
sg16
g12
((lp1674
g1663
ag1639
ag1103
ag1
(g8
g3
NtRp1675
(dp1676
g11
g12
((lp1677
I1
aI10
aI3
aI6
atRp1678
sg15
I20575
sg16
g12
((lp1679
g1644
ag1558
ag1360
ag450
atRp1680
sg18
g12
((lp1681
g1670
atRp1682
sbag1565
atRp1683
sg18
g12
((ltRp1684
sbatRp1685
sbag1639
atRp1686
sbag450
atRp1687
sbag1551
atRp1688
sg18
g12
((lp1689
g1675
ag1639
atRp1690
sbag1656
ag1570
atRp1691
sg18
g12
((lp1692
g1670
atRp1693
sbatRp1694
sbatRp1695
sg18
g12
((lp1696
g1670
ag1619
ag1512
atRp1697
sbag1541
ag1675
ag872
atRp1698
sbag1570
ag1546
ag877
ag933
ag1644
atRp1699
sbag42
atRp1700
sg18
g12
((lp1701
g1541
ag1577
atRp1702
sbag1558
ag154
atRp1703
sg18
g12
((lp1704
g1619
atRp1705
sbag1529
ag1589
atRp1706
sbag1522
ag1168
ag1606
atRp1707
sg18
g12
((lp1708
g1596
atRp1709
sbag1517
atRp1710
sbatRp1711
sg18
g12
((lp1712
g1512
ag1596
atRp1713
sbag1505
ag1631
ag1565
atRp1714
sg18
g12
((ltRp1715
sbag1302
ag1
(g8
g3
NtRp1716
(dp1717
g11
g12
((lp1718
I1
aI2
aI3
aI4
aI9
atRp1719
sg15
I21000
sg16
g12
((lp1720
g702
ag1151
ag1
(g8
g3
NtRp1721
(dp1722
g11
g12
((lp1723
I1
aI2
aI3
aI9
atRp1724
sg15
I10425
sg16
g12
((lp1725
g695
ag367
ag1144
ag1
(g8
g3
NtRp1726
(dp1727
g11
g12
((lp1728
I9
aI2
aI3
atRp1729
sg15
I10500
sg16
g12
((lp1730
g205
ag514
ag490
atRp1731
sg18
g12
((lp1732
g1115
ag1721
ag1
(g8
g3
NtRp1733
(dp1734
g11
g12
((lp1735
I9
aI2
aI3
aI5
atRp1736
sg15
I11900
sg16
g12
((lp1737
g485
ag200
ag521
ag1726
atRp1738
sg18
g12
((lp1739
g1
(g8
g3
NtRp1740
(dp1741
g11
g12
((lp1742
I1
aI2
aI3
aI5
aI9
atRp1743
sg15
I10975
sg16
g12
((lp1744
g1
(g8
g3
NtRp1745
(dp1746
g11
g12
((lp1747
I1
aI2
aI5
aI9
atRp1748
sg15
I11625
sg16
g12
((lp1749
g695
ag1
(g8
g3
NtRp1750
(dp1751
g11
g12
((lp1752
I1
aI5
aI9
atRp1753
sg15
I13850
sg16
g12
((lp1754
g147
ag478
ag467
atRp1755
sg18
g12
((lp1756
g1745
ag1
(g8
g3
NtRp1757
(dp1758
g11
g12
((lp1759
I1
aI3
aI5
aI9
atRp1760
sg15
I13825
sg16
g12
((lp1761
g485
ag1750
ag1144
ag154
atRp1762
sg18
g12
((lp1763
g1740
atRp1764
sbag1163
atRp1765
sbag521
ag1288
atRp1766
sg18
g12
((lp1767
g1
(g8
g3
NtRp1768
(dp1769
g11
g12
((lp1770
I1
aI2
aI4
aI5
aI9
atRp1771
sg15
I16025
sg16
g12
((lp1772
g702
ag1745
ag1
(g8
g3
NtRp1773
(dp1774
g11
g12
((lp1775
I9
aI2
aI4
aI5
atRp1776
sg15
I10975
sg16
g12
((lp1777
g533
ag521
ag1
(g8
g3
NtRp1778
(dp1779
g11
g12
((lp1780
I9
aI4
aI5
atRp1781
sg15
I12350
sg16
g12
((lp1782
g538
ag502
ag478
atRp1783
sg18
g12
((lp1784
g1773
ag1163
atRp1785
sbag509
atRp1786
sg18
g12
((lp1787
g1768
atRp1788
sbag1163
ag1307
atRp1789
sg18
g12
((ltRp1790
sbag1740
atRp1791
sbag1295
ag1721
ag1757
ag1733
atRp1792
sg18
g12
((ltRp1793
sbatRp1794
sbag1
(g8
g3
NtRp1795
(dp1796
g11
g12
((lp1797
I9
aI2
aI3
aI4
atRp1798
sg15
I11750
sg16
g12
((lp1799
g497
ag743
ag509
ag1726
atRp1800
sg18
g12
((lp1801
g1716
atRp1802
sbatRp1803
sbatRp1804
sg18
g12
((lp1805
g1
(g8
g3
NtRp1806
(dp1807
g11
g12
((lp1808
I1
aI2
aI3
aI6
aI9
atRp1809
sg15
I10600
sg16
g12
((lp1810
g1139
ag1721
ag1
(g8
g3
NtRp1811
(dp1812
g11
g12
((lp1813
I1
aI2
aI6
aI9
atRp1814
sg15
I24000
sg16
g12
((lp1815
g695
ag1132
ag1065
ag1
(g8
g3
NtRp1816
(dp1817
g11
g12
((lp1818
I9
aI2
aI6
atRp1819
sg15
I18000
sg16
g12
((lp1820
g1125
ag419
ag514
atRp1821
sg18
g12
((lp1822
g1115
ag1811
atRp1823
sbatRp1824
sg18
g12
((lp1825
g1806
atRp1826
sbag1103
ag1115
atRp1827
sg18
g12
((ltRp1828
sbag1716
ag1740
atRp1829
sbag1505
ag1795
atRp1830
sg18
g12
((ltRp1831
sbag1
(g8
g3
NtRp1832
(dp1833
g11
g12
((lp1834
I1
aI2
aI3
aI4
aI15
atRp1835
sg15
I13675
sg16
g12
((lp1836
g1
(g8
g3
NtRp1837
(dp1838
g11
g12
((lp1839
I2
aI3
aI4
aI15
atRp1840
sg15
I17075
sg16
g12
((lp1841
g1
(g8
g3
NtRp1842
(dp1843
g11
g12
((lp1844
I2
aI4
aI15
atRp1845
sg15
I11250
sg16
g12
((lp1846
g1
(g8
g3
NtRp1847
(dp1848
g11
g12
((lp1849
I4
aI15
atRp1850
sg15
I13825
sg16
g12
((lp1851
g245
ag1
(g8
g3
NtRp1852
(dp1853
g11
g12
((lp1854
I15
atRp1855
sg15
I21413
sg16
g12
((ltRp1856
sg18
g12
((lp1857
g1
(g8
g3
NtRp1858
(dp1859
g11
g12
((lp1860
I5
aI15
atRp1861
sg15
I13500
sg16
g12
((lp1862
g36
ag1852
atRp1863
sg18
g12
((lp1864
g1
(g8
g3
NtRp1865
(dp1866
g11
g12
((lp1867
I1
aI5
aI15
atRp1868
sg15
I18750
sg16
g12
((lp1869
g147
ag1
(g8
g3
NtRp1870
(dp1871
g11
g12
((lp1872
I1
aI15
atRp1873
sg15
I34325
sg16
g12
((lp1874
g69
ag1852
atRp1875
sg18
g12
((lp1876
g1
(g8
g3
NtRp1877
(dp1878
g11
g12
((lp1879
I1
aI2
aI15
atRp1880
sg15
I17975
sg16
g12
((lp1881
g112
ag1870
ag1
(g8
g3
NtRp1882
(dp1883
g11
g12
((lp1884
I2
aI15
atRp1885
sg15
I16625
sg16
g12
((lp1886
g9
ag1852
atRp1887
sg18
g12
((lp1888
g1877
ag1
(g8
g3
NtRp1889
(dp1890
g11
g12
((lp1891
I2
aI5
aI15
atRp1892
sg15
I14525
sg16
g12
((lp1893
g1858
ag526
ag1882
atRp1894
sg18
g12
((lp1895
g1
(g8
g3
NtRp1896
(dp1897
g11
g12
((lp1898
I1
aI2
aI5
aI15
atRp1899
sg15
I12525
sg16
g12
((lp1900
g1288
ag1889
ag1865
ag1877
atRp1901
sg18
g12
((ltRp1902
sbatRp1903
sbag1
(g8
g3
NtRp1904
(dp1905
g11
g12
((lp1906
I2
aI3
aI15
atRp1907
sg15
I10650
sg16
g12
((lp1908
g1
(g8
g3
NtRp1909
(dp1910
g11
g12
((lp1911
I3
aI15
atRp1912
sg15
I12950
sg16
g12
((lp1913
g164
ag1852
atRp1914
sg18
g12
((lp1915
g1
(g8
g3
NtRp1916
(dp1917
g11
g12
((lp1918
I1
aI3
aI15
atRp1919
sg15
I28675
sg16
g12
((lp1920
g310
ag1870
ag1909
atRp1921
sg18
g12
((lp1922
g1
(g8
g3
NtRp1923
(dp1924
g11
g12
((lp1925
I1
aI2
aI3
aI15
atRp1926
sg15
I16575
sg16
g12
((lp1927
g1877
ag1916
ag367
ag1904
atRp1928
sg18
g12
((lp1929
g1832
atRp1930
sbag1
(g8
g3
NtRp1931
(dp1932
g11
g12
((lp1933
I1
aI3
aI4
aI15
atRp1934
sg15
I10400
sg16
g12
((lp1935
g1916
ag1
(g8
g3
NtRp1936
(dp1937
g11
g12
((lp1938
I3
aI4
aI15
atRp1939
sg15
I11475
sg16
g12
((lp1940
g1847
ag263
ag1909
atRp1941
sg18
g12
((lp1942
g1837
ag1931
atRp1943
sbag865
ag1
(g8
g3
NtRp1944
(dp1945
g11
g12
((lp1946
I1
aI4
aI15
atRp1947
sg15
I11625
sg16
g12
((lp1948
g240
ag1870
ag1847
atRp1949
sg18
g12
((lp1950
g1
(g8
g3
NtRp1951
(dp1952
g11
g12
((lp1953
I1
aI2
aI4
aI15
atRp1954
sg15
I16375
sg16
g12
((lp1955
g1842
ag707
ag1877
ag1944
atRp1956
sg18
g12
((lp1957
g1832
atRp1958
sbag1931
atRp1959
sbatRp1960
sg18
g12
((lp1961
g1832
atRp1962
sbatRp1963
sbag1936
ag1904
atRp1964
sbag205
ag1882
atRp1965
sg18
g12
((lp1966
g1837
ag1923
atRp1967
sbag1842
atRp1968
sbatRp1969
sg18
g12
((lp1970
g1923
ag1896
ag1951
atRp1971
sbag1
(g8
g3
NtRp1972
(dp1973
g11
g12
((lp1974
I1
aI6
aI15
atRp1975
sg15
I12075
sg16
g12
((lp1976
g443
ag1
(g8
g3
NtRp1977
(dp1978
g11
g12
((lp1979
I6
aI15
atRp1980
sg15
I15200
sg16
g12
((lp1981
g1852
ag175
atRp1982
sg18
g12
((lp1983
g1972
atRp1984
sbag1870
atRp1985
sg18
g12
((ltRp1986
sbag1916
ag1944
ag1865
atRp1987
sbag1858
atRp1988
sg18
g12
((lp1989
g1896
atRp1990
sbag1889
atRp1991
sbag1882
ag1870
ag1909
ag1847
ag1977
atRp1992
sbatRp1993
sg18
g12
((lp1994
g1842
ag1936
ag1944
atRp1995
sbag712
ag1882
atRp1996
sg18
g12
((lp1997
g1837
ag1951
atRp1998
sbag743
ag1936
ag1904
atRp1999
sg18
g12
((lp2000
g1832
atRp2001
sbag1931
ag1951
ag1505
ag1923
atRp2002
sg18
g12
((ltRp2003
sbag1
(g8
g3
NtRp2004
(dp2005
g11
g12
((lp2006
I8
aI1
aI2
aI3
aI4
atRp2007
sg15
I13775
sg16
g12
((lp2008
g1
(g8
g3
NtRp2009
(dp2010
g11
g12
((lp2011
I8
aI1
aI2
aI4
atRp2012
sg15
I16375
sg16
g12
((lp2013
g1
(g8
g3
NtRp2014
(dp2015
g11
g12
((lp2016
I8
aI1
aI4
atRp2017
sg15
I12325
sg16
g12
((lp2018
g240
ag550
ag561
atRp2019
sg18
g12
((lp2020
g2009
ag1
(g8
g3
NtRp2021
(dp2022
g11
g12
((lp2023
I8
aI1
aI4
aI7
atRp2024
sg15
I10225
sg16
g12
((lp2025
g969
ag981
ag993
ag2014
atRp2026
sg18
g12
((ltRp2027
sbag1
(g8
g3
NtRp2028
(dp2029
g11
g12
((lp2030
I8
aI1
aI4
aI5
atRp2031
sg15
I10975
sg16
g12
((lp2032
g2014
ag1
(g8
g3
NtRp2033
(dp2034
g11
g12
((lp2035
I8
aI1
aI5
atRp2036
sg15
I17800
sg16
g12
((lp2037
g147
ag561
ag585
atRp2038
sg18
g12
((lp2039
g1283
ag1
(g8
g3
NtRp2040
(dp2041
g11
g12
((lp2042
I8
aI1
aI3
aI5
atRp2043
sg15
I18850
sg16
g12
((lp2044
g568
ag2033
ag154
ag580
atRp2045
sg18
g12
((lp2046
g1278
atRp2047
sbag2028
atRp2048
sbag1168
ag545
atRp2049
sg18
g12
((lp2050
g1
(g8
g3
NtRp2051
(dp2052
g11
g12
((lp2053
I8
aI1
aI2
aI4
aI5
atRp2054
sg15
I12100
sg16
g12
((lp2055
g2009
ag2028
ag1307
ag1
(g8
g3
NtRp2056
(dp2057
g11
g12
((lp2058
I8
aI2
aI4
aI5
atRp2059
sg15
I16125
sg16
g12
((lp2060
g545
ag533
ag592
ag1
(g8
g3
NtRp2061
(dp2062
g11
g12
((lp2063
I8
aI2
aI4
atRp2064
sg15
I14050
sg16
g12
((lp2065
g597
ag712
ag550
atRp2066
sg18
g12
((lp2067
g2009
ag2056
ag1259
ag1
(g8
g3
NtRp2068
(dp2069
g11
g12
((lp2070
I8
aI2
aI4
aI6
atRp2071
sg15
I13725
sg16
g12
((lp2072
g1041
ag1029
ag1
(g8
g3
NtRp2073
(dp2074
g11
g12
((lp2075
I8
aI2
aI6
atRp2076
sg15
I10150
sg16
g12
((lp2077
g1046
ag419
ag597
atRp2078
sg18
g12
((lp2079
g1060
ag2068
ag1
(g8
g3
NtRp2080
(dp2081
g11
g12
((lp2082
I8
aI2
aI3
aI6
atRp2083
sg15
I11450
sg16
g12
((lp2084
g1
(g8
g3
NtRp2085
(dp2086
g11
g12
((lp2087
I8
aI3
aI6
atRp2088
sg15
I44325
sg16
g12
((lp2089
g170
ag573
ag1046
atRp2090
sg18
g12
((lp2091
g2080
ag1
(g8
g3
NtRp2092
(dp2093
g11
g12
((lp2094
I8
aI1
aI3
aI6
atRp2095
sg15
I11450
sg16
g12
((lp2096
g1053
ag2085
ag1360
ag568
atRp2097
sg18
g12
((lp2098
g1
(g8
g3
NtRp2099
(dp2100
g11
g12
((lp2101
I8
aI1
aI2
aI3
aI6
atRp2102
sg15
I10525
sg16
g12
((lp2103
g1060
ag2092
ag1
(g8
g3
NtRp2104
(dp2105
g11
g12
((lp2106
I8
aI1
aI2
aI3
atRp2107
sg15
I13375
sg16
g12
((lp2108
g628
ag367
ag1264
ag568
atRp2109
sg18
g12
((lp2110
g2004
ag2099
ag1278
ag1
(g8
g3
NtRp2111
(dp2112
g11
g12
((lp2113
I8
aI1
aI2
aI3
aI7
atRp2114
sg15
I16050
sg16
g12
((lp2115
g952
ag1
(g8
g3
NtRp2116
(dp2117
g11
g12
((lp2118
I8
aI2
aI3
aI7
atRp2119
sg15
I11900
sg16
g12
((lp2120
g640
ag945
ag1264
ag1
(g8
g3
NtRp2121
(dp2122
g11
g12
((lp2123
I8
aI3
aI7
atRp2124
sg15
I36700
sg16
g12
((lp2125
g573
ag938
ag974
atRp2126
sg18
g12
((lp2127
g2116
ag964
atRp2128
sbatRp2129
sg18
g12
((lp2130
g2111
atRp2131
sbag964
ag2104
ag635
atRp2132
sg18
g12
((ltRp2133
sbatRp2134
sbag2080
ag1103
atRp2135
sg18
g12
((ltRp2136
sbatRp2137
sbatRp2138
sbag1108
ag1264
ag2073
atRp2139
sg18
g12
((lp2140
g2099
atRp2141
sbatRp2142
sbag2061
atRp2143
sg18
g12
((lp2144
g1
(g8
g3
NtRp2145
(dp2146
g11
g12
((lp2147
I8
aI1
aI2
aI4
aI6
atRp2148
sg15
I12100
sg16
g12
((lp2149
g1
(g8
g3
NtRp2150
(dp2151
g11
g12
((lp2152
I8
aI1
aI4
aI6
atRp2153
sg15
I10075
sg16
g12
((lp2154
g1053
ag1041
ag1435
ag2014
atRp2155
sg18
g12
((lp2156
g2145
atRp2157
sbag2009
ag2068
ag1430
ag1060
atRp2158
sg18
g12
((ltRp2159
sbatRp2160
sbatRp2161
sbatRp2162
sg18
g12
((lp2163
g2051
atRp2164
sbag1283
atRp2165
sg18
g12
((ltRp2166
sbatRp2167
sbag1
(g8
g3
NtRp2168
(dp2169
g11
g12
((lp2170
I8
aI1
aI3
aI4
atRp2171
sg15
I12625
sg16
g12
((lp2172
g2014
ag1252
ag865
ag568
atRp2173
sg18
g12
((lp2174
g2004
atRp2175
sbag2150
atRp2176
sbag707
ag2061
ag628
atRp2177
sg18
g12
((lp2178
g2004
ag2051
ag2145
atRp2179
sbag2168
ag2104
ag1259
ag1505
atRp2180
sg18
g12
((ltRp2181
sbag1500
ag1
(g8
g3
NtRp2182
(dp2183
g11
g12
((lp2184
I1
aI2
aI3
aI4
aI13
atRp2185
sg15
I14000
sg16
g12
((lp2186
g374
ag1505
ag1
(g8
g3
NtRp2187
(dp2188
g11
g12
((lp2189
I1
aI3
aI4
aI13
atRp2190
sg15
I11000
sg16
g12
((lp2191
g1
(g8
g3
NtRp2192
(dp2193
g11
g12
((lp2194
I1
aI3
aI13
atRp2195
sg15
I16875
sg16
g12
((lp2196
g310
ag395
ag384
atRp2197
sg18
g12
((lp2198
g374
ag2187
atRp2199
sbag731
ag865
ag1
(g8
g3
NtRp2200
(dp2201
g11
g12
((lp2202
I1
aI4
aI13
atRp2203
sg15
I13375
sg16
g12
((lp2204
g240
ag395
ag724
atRp2205
sg18
g12
((lp2206
g1
(g8
g3
NtRp2207
(dp2208
g11
g12
((lp2209
I1
aI2
aI4
aI13
atRp2210
sg15
I11800
sg16
g12
((lp2211
g402
ag719
ag707
ag2200
atRp2212
sg18
g12
((lp2213
g2182
atRp2214
sbag2187
atRp2215
sbatRp2216
sg18
g12
((lp2217
g2182
atRp2218
sbag738
ag2207
atRp2219
sg18
g12
((ltRp2220
sbag1
(g8
g3
NtRp2221
(dp2222
g11
g12
((lp2223
I11
aI1
aI2
aI3
aI4
atRp2224
sg15
I12100
sg16
g12
((lp2225
g1
(g8
g3
NtRp2226
(dp2227
g11
g12
((lp2228
I3
aI1
aI2
aI11
atRp2229
sg15
I10275
sg16
g12
((lp2230
g1
(g8
g3
NtRp2231
(dp2232
g11
g12
((lp2233
I3
aI2
aI11
atRp2234
sg15
I11075
sg16
g12
((lp2235
g286
ag275
ag205
atRp2236
sg18
g12
((lp2237
g2226
ag1
(g8
g3
NtRp2238
(dp2239
g11
g12
((lp2240
I11
aI2
aI3
aI4
atRp2241
sg15
I10300
sg16
g12
((lp2242
g270
ag743
ag1
(g8
g3
NtRp2243
(dp2244
g11
g12
((lp2245
I2
aI11
aI4
atRp2246
sg15
I17725
sg16
g12
((lp2247
g286
ag712
ag1
(g8
g3
NtRp2248
(dp2249
g11
g12
((lp2250
I11
aI4
atRp2251
sg15
I13725
sg16
g12
((lp2252
g245
ag280
atRp2253
sg18
g12
((lp2254
g270
ag1
(g8
g3
NtRp2255
(dp2256
g11
g12
((lp2257
I11
aI4
aI5
atRp2258
sg15
I10950
sg16
g12
((lp2259
g538
ag2248
ag1
(g8
g3
NtRp2260
(dp2261
g11
g12
((lp2262
I11
aI5
atRp2263
sg15
I12425
sg16
g12
((lp2264
g36
ag280
atRp2265
sg18
g12
((lp2266
g1
(g8
g3
NtRp2267
(dp2268
g11
g12
((lp2269
I3
aI11
aI5
atRp2270
sg15
I21300
sg16
g12
((lp2271
g159
ag275
ag2260
atRp2272
sg18
g12
((lp2273
g1
(g8
g3
NtRp2274
(dp2275
g11
g12
((lp2276
I11
aI1
aI3
aI5
atRp2277
sg15
I10175
sg16
g12
((lp2278
g2267
ag305
ag1
(g8
g3
NtRp2279
(dp2280
g11
g12
((lp2281
I1
aI11
aI5
atRp2282
sg15
I10100
sg16
g12
((lp2283
g147
ag298
ag2260
atRp2284
sg18
g12
((lp2285
g1
(g8
g3
NtRp2286
(dp2287
g11
g12
((lp2288
I1
aI2
aI11
aI5
atRp2289
sg15
I12775
sg16
g12
((lp2290
g1288
ag1
(g8
g3
NtRp2291
(dp2292
g11
g12
((lp2293
I2
aI11
aI5
atRp2294
sg15
I14650
sg16
g12
((lp2295
g286
ag2260
ag526
atRp2296
sg18
g12
((lp2297
g2286
ag1
(g8
g3
NtRp2298
(dp2299
g11
g12
((lp2300
I11
aI2
aI3
aI5
atRp2301
sg15
I21250
sg16
g12
((lp2302
g2267
ag2291
ag200
ag2231
atRp2303
sg18
g12
((ltRp2304
sbatRp2305
sbag2279
ag293
atRp2306
sg18
g12
((ltRp2307
sbag2274
atRp2308
sbag154
atRp2309
sg18
g12
((ltRp2310
sbag2298
atRp2311
sbag2255
ag2279
ag2291
atRp2312
sbatRp2313
sg18
g12
((ltRp2314
sbag2243
ag1
(g8
g3
NtRp2315
(dp2316
g11
g12
((lp2317
I1
aI11
aI4
atRp2318
sg15
I16500
sg16
g12
((lp2319
g240
ag2248
ag298
atRp2320
sg18
g12
((lp2321
g1
(g8
g3
NtRp2322
(dp2323
g11
g12
((lp2324
I1
aI2
aI11
aI4
atRp2325
sg15
I14675
sg16
g12
((lp2326
g293
ag2315
ag707
ag2243
atRp2327
sg18
g12
((lp2328
g2221
atRp2329
sbag1
(g8
g3
NtRp2330
(dp2331
g11
g12
((lp2332
I11
aI1
aI3
aI4
atRp2333
sg15
I12225
sg16
g12
((lp2334
g270
ag2315
ag865
ag305
atRp2335
sg18
g12
((lp2336
g2221
atRp2337
sbatRp2338
sbatRp2339
sbatRp2340
sg18
g12
((lp2341
g2322
ag2238
atRp2342
sbag2231
atRp2343
sg18
g12
((lp2344
g2221
atRp2345
sbag2298
atRp2346
sbag305
ag367
ag293
atRp2347
sg18
g12
((lp2348
g2221
atRp2349
sbag2330
ag1505
ag2238
ag2322
atRp2350
sg18
g12
((ltRp2351
sbag1
(g8
g3
NtRp2352
(dp2353
g11
g12
((lp2354
I1
aI2
aI3
aI4
aI6
atRp2355
sg15
I18550
sg16
g12
((lp2356
g1430
ag1442
ag1103
ag1505
ag1
(g8
g3
NtRp2357
(dp2358
g11
g12
((lp2359
I2
aI3
aI4
aI6
atRp2360
sg15
I10000
sg16
g12
((lp2361
g1447
ag743
ag1029
ag1108
atRp2362
sg18
g12
((lp2363
g2352
ag1
(g8
g3
NtRp2364
(dp2365
g11
g12
((lp2366
I2
aI3
aI4
aI5
aI6
atRp2367
sg15
I11575
sg16
g12
((lp2368
g2357
ag1454
ag1
(g8
g3
NtRp2369
(dp2370
g11
g12
((lp2371
I2
aI3
aI4
aI5
atRp2372
sg15
I19950
sg16
g12
((lp2373
g533
ag200
ag743
ag1240
atRp2374
sg18
g12
((lp2375
g1302
ag2364
atRp2376
sbag1331
ag195
atRp2377
sg18
g12
((lp2378
g1
(g8
g3
NtRp2379
(dp2380
g11
g12
((lp2381
I1
aI2
aI3
aI4
aI5
aI6
atRp2382
sg15
I11825
sg16
g12
((lp2383
g1314
ag1302
ag1461
ag2352
ag1
(g8
g3
NtRp2384
(dp2385
g11
g12
((lp2386
I1
aI2
aI3
aI5
aI6
atRp2387
sg15
I10325
sg16
g12
((lp2388
g1319
ag1295
ag1103
ag1355
ag195
atRp2389
sg18
g12
((lp2390
g2379
atRp2391
sbag2364
atRp2392
sg18
g12
((ltRp2393
sbatRp2394
sbatRp2395
sbatRp2396
sg18
g12
((lp2397
g2379
atRp2398
sbag855
atRp2399
sbag1391
ag1493
atRp2400
sg18
g12
((ltRp2401
sbag1
(g8
g3
NtRp2402
(dp2403
g11
g12
((lp2404
I1
aI3
aI4
aI6
aI7
atRp2405
sg15
I11950
sg16
g12
((lp2406
g1379
ag1493
ag1442
ag1367
ag1000
atRp2407
sg18
g12
((ltRp2408
sbatRp2409
sbatRp2410
sg18
g12
((ltRp2411
sbag1302
ag1461
atRp2412
sbag1454
ag1355
ag1343
atRp2413
sg18
g12
((lp2414
g2379
atRp2415
sbag2364
atRp2416
sbag2357
atRp2417
sbag865
ag1435
ag1360
atRp2418
sg18
g12
((lp2419
g2352
ag1461
ag2402
atRp2420
sbag1430
ag1000
ag1343
ag2150
ag1
(g8
g3
NtRp2421
(dp2422
g11
g12
((lp2423
I1
aI4
aI6
aI9
atRp2424
sg15
I18475
sg16
g12
((lp2425
g1435
ag1
(g8
g3
NtRp2426
(dp2427
g11
g12
((lp2428
I9
aI4
aI6
atRp2429
sg15
I11825
sg16
g12
((lp2430
g1034
ag502
ag1125
atRp2431
sg18
g12
((lp2432
g2421
atRp2433
sbag1156
ag1132
atRp2434
sg18
g12
((ltRp2435
sbatRp2436
sbag707
atRp2437
sg18
g12
((lp2438
g1314
ag1425
ag2145
ag2352
atRp2439
sbag1024
ag1
(g8
g3
NtRp2440
(dp2441
g11
g12
((lp2442
I1
aI2
aI6
aI7
atRp2443
sg15
I18900
sg16
g12
((lp2444
g1017
ag652
ag1065
ag1005
atRp2445
sg18
g12
((lp2446
g1425
ag1
(g8
g3
NtRp2447
(dp2448
g11
g12
((lp2449
I1
aI2
aI3
aI6
aI7
atRp2450
sg15
I12025
sg16
g12
((lp2451
g952
ag1103
ag2440
ag1
(g8
g3
NtRp2452
(dp2453
g11
g12
((lp2454
I2
aI3
aI6
aI7
atRp2455
sg15
I18850
sg16
g12
((lp2456
g1372
ag945
ag1108
ag1017
atRp2457
sg18
g12
((lp2458
g2447
atRp2459
sbag1367
atRp2460
sg18
g12
((ltRp2461
sbatRp2462
sbag1403
atRp2463
sg18
g12
((ltRp2464
sbag1500
atRp2465
sbag1391
ag1415
ag1024
atRp2466
sbag743
ag1384
ag945
atRp2467
sg18
g12
((lp2468
g1500
atRp2469
sbag1493
atRp2470
sbag1372
ag1
(g8
g3
NtRp2471
(dp2472
g11
g12
((lp2473
I4
aI6
aI7
atRp2474
sg15
I16875
sg16
g12
((lp2475
g986
ag1010
ag1034
atRp2476
sg18
g12
((lp2477
g1379
ag1024
ag1000
atRp2478
sbag1447
atRp2479
sg18
g12
((lp2480
g2402
atRp2481
sbag2452
ag1367
atRp2482
sbag1360
ag957
ag1005
atRp2483
sg18
g12
((lp2484
g2402
ag2447
atRp2485
sbag2092
ag1442
ag1355
ag1675
ag1
(g8
g3
NtRp2486
(dp2487
g11
g12
((lp2488
I3
aI1
aI11
aI6
atRp2489
sg15
I12275
sg16
g12
((lp2490
g1
(g8
g3
NtRp2491
(dp2492
g11
g12
((lp2493
I3
aI11
aI6
atRp2494
sg15
I12775
sg16
g12
((lp2495
g170
ag275
ag1
(g8
g3
NtRp2496
(dp2497
g11
g12
((lp2498
I11
aI6
atRp2499
sg15
I10325
sg16
g12
((lp2500
g280
ag175
atRp2501
sg18
g12
((lp2502
g2491
ag1
(g8
g3
NtRp2503
(dp2504
g11
g12
((lp2505
I2
aI11
aI6
atRp2506
sg15
I12275
sg16
g12
((lp2507
g286
ag419
ag2496
atRp2508
sg18
g12
((lp2509
g1
(g8
g3
NtRp2510
(dp2511
g11
g12
((lp2512
I1
aI2
aI11
aI6
atRp2513
sg15
I15025
sg16
g12
((lp2514
g293
ag1
(g8
g3
NtRp2515
(dp2516
g11
g12
((lp2517
I1
aI11
aI6
atRp2518
sg15
I13950
sg16
g12
((lp2519
g443
ag298
ag2496
atRp2520
sg18
g12
((lp2521
g2510
ag2486
atRp2522
sbag1065
ag2503
atRp2523
sg18
g12
((ltRp2524
sbatRp2525
sbag2515
atRp2526
sbatRp2527
sg18
g12
((lp2528
g2486
atRp2529
sbag2515
ag1360
ag305
atRp2530
sg18
g12
((ltRp2531
sbatRp2532
sbag188
atRp2533
sg18
g12
((lp2534
g1461
ag2384
atRp2535
sbag1343
atRp2536
sbag1336
ag1435
ag1168
atRp2537
sg18
g12
((lp2538
g1314
ag1461
atRp2539
sbag1331
ag1454
atRp2540
sbag1324
ag1029
atRp2541
sg18
g12
((lp2542
g1314
ag2364
atRp2543
sbag195
atRp2544
sbag1348
atRp2545
sg18
g12
((lp2546
g1314
ag2384
atRp2547
sbag1307
ag1343
ag1331
ag1430
atRp2548
sg18
g12
((lp2549
g2379
atRp2550
sbag1302
ag1768
ag1596
ag1410
ag2051
atRp2551
sbag1295
ag1505
ag2369
ag1466
atRp2552
sg18
g12
((lp2553
g2379
atRp2554
sbag1278
ag1740
ag2384
ag1485
ag1619
atRp2555
sbag2286
ag1319
ag1745
ag1
(g8
g3
NtRp2556
(dp2557
g11
g12
((lp2558
I1
aI2
aI5
aI14
atRp2559
sg15
I13175
sg16
g12
((lp2560
g1288
ag1
(g8
g3
NtRp2561
(dp2562
g11
g12
((lp2563
I2
aI5
aI14
atRp2564
sg15
I18600
sg16
g12
((lp2565
g135
ag526
ag1
(g8
g3
NtRp2566
(dp2567
g11
g12
((lp2568
I2
aI14
atRp2569
sg15
I17150
sg16
g12
((lp2570
g9
ag129
atRp2571
sg18
g12
((lp2572
g119
ag1
(g8
g3
NtRp2573
(dp2574
g11
g12
((lp2575
I2
aI3
aI14
atRp2576
sg15
I10125
sg16
g12
((lp2577
g1
(g8
g3
NtRp2578
(dp2579
g11
g12
((lp2580
I3
aI14
atRp2581
sg15
I21600
sg16
g12
((lp2582
g164
ag129
atRp2583
sg18
g12
((lp2584
g258
ag1
(g8
g3
NtRp2585
(dp2586
g11
g12
((lp2587
I1
aI3
aI14
atRp2588
sg15
I25200
sg16
g12
((lp2589
g310
ag124
ag2578
atRp2590
sg18
g12
((lp2591
g1
(g8
g3
NtRp2592
(dp2593
g11
g12
((lp2594
I1
aI2
aI3
aI14
atRp2595
sg15
I10400
sg16
g12
((lp2596
g2573
ag2585
ag367
ag119
atRp2597
sg18
g12
((ltRp2598
sbag1
(g8
g3
NtRp2599
(dp2600
g11
g12
((lp2601
I1
aI3
aI4
aI14
atRp2602
sg15
I15850
sg16
g12
((lp2603
g258
ag2585
ag1
(g8
g3
NtRp2604
(dp2605
g11
g12
((lp2606
I1
aI4
aI14
atRp2607
sg15
I12775
sg16
g12
((lp2608
g240
ag124
ag251
atRp2609
sg18
g12
((lp2610
g1
(g8
g3
NtRp2611
(dp2612
g11
g12
((lp2613
I1
aI2
aI4
aI14
atRp2614
sg15
I12625
sg16
g12
((lp2615
g119
ag1
(g8
g3
NtRp2616
(dp2617
g11
g12
((lp2618
I2
aI4
aI14
atRp2619
sg15
I15725
sg16
g12
((lp2620
g251
ag712
ag2566
atRp2621
sg18
g12
((lp2622
g2611
atRp2623
sbag707
ag2604
atRp2624
sg18
g12
((ltRp2625
sbag2599
atRp2626
sbag865
atRp2627
sg18
g12
((ltRp2628
sbatRp2629
sbag2573
atRp2630
sbag205
ag2566
atRp2631
sg18
g12
((lp2632
g2592
atRp2633
sbag426
ag2561
ag2616
atRp2634
sbatRp2635
sg18
g12
((lp2636
g2556
atRp2637
sbag142
ag119
atRp2638
sg18
g12
((ltRp2639
sbag1
(g8
g3
NtRp2640
(dp2641
g11
g12
((lp2642
I1
aI2
aI13
aI5
atRp2643
sg15
I10825
sg16
g12
((lp2644
g1288
ag1
(g8
g3
NtRp2645
(dp2646
g11
g12
((lp2647
I2
aI13
aI5
atRp2648
sg15
I12550
sg16
g12
((lp2649
g1
(g8
g3
NtRp2650
(dp2651
g11
g12
((lp2652
I13
aI5
atRp2653
sg15
I10200
sg16
g12
((lp2654
g36
ag389
atRp2655
sg18
g12
((lp2656
g1
(g8
g3
NtRp2657
(dp2658
g11
g12
((lp2659
I1
aI13
aI5
atRp2660
sg15
I10025
sg16
g12
((lp2661
g147
ag395
ag2650
atRp2662
sg18
g12
((lp2663
g2640
atRp2664
sbag2645
atRp2665
sbag407
ag526
atRp2666
sg18
g12
((lp2667
g2640
atRp2668
sbag2657
ag402
atRp2669
sg18
g12
((ltRp2670
sbag1307
ag1283
ag1589
ag1211
ag1896
ag1
(g8
g3
NtRp2671
(dp2672
g11
g12
((lp2673
I1
aI2
aI12
aI5
atRp2674
sg15
I21525
sg16
g12
((lp2675
g1288
ag817
ag1
(g8
g3
NtRp2676
(dp2677
g11
g12
((lp2678
I2
aI12
aI5
atRp2679
sg15
I18100
sg16
g12
((lp2680
g822
ag771
ag526
atRp2681
sg18
g12
((lp2682
g2671
atRp2683
sbag1
(g8
g3
NtRp2684
(dp2685
g11
g12
((lp2686
I1
aI12
aI5
atRp2687
sg15
I14000
sg16
g12
((lp2688
g147
ag771
ag795
atRp2689
sg18
g12
((lp2690
g785
ag2671
atRp2691
sbatRp2692
sg18
g12
((ltRp2693
sbatRp2694
sbag592
ag2033
atRp2695
sg18
g12
((lp2696
g1278
ag2051
atRp2697
sbag2040
ag2104
ag1295
atRp2698
sg18
g12
((ltRp2699
sbatRp2700
sbag2116
ag2104
ag2080
ag1259
atRp2701
sbag2061
atRp2702
sg18
g12
((lp2703
g2004
atRp2704
sbag2168
atRp2705
sbag580
ag545
atRp2706
sg18
g12
((ltRp2707
sbag1454
ag2369
ag1466
atRp2708
sbag1180
ag1228
ag1384
atRp2709
sg18
g12
((lp2710
g1473
atRp2711
sbag1478
ag1223
atRp2712
sbag945
atRp2713
sg18
g12
((lp2714
g1485
atRp2715
sbag1415
atRp2716
sbag1288
atRp2717
sg18
g12
((lp2718
g1410
ag1485
atRp2719
sbag1199
ag1478
ag1175
atRp2720
sbag1348
atRp2721
sg18
g12
((ltRp2722
sbatRp2723
sbag1228
ag1216
ag1204
atRp2724
sbag538
atRp2725
sg18
g12
((lp2726
g1175
ag1235
ag1415
atRp2727
sbag993
ag1204
ag1168
atRp2728
sg18
g12
((lp2729
g1410
ag1473
atRp2730
sbag2028
ag1163
ag1307
ag1343
ag1529
ag1466
atRp2731
sbag1778
ag1156
ag1750
atRp2732
sg18
g12
((lp2733
g1768
atRp2734
sbag2421
atRp2735
sbag1144
atRp2736
sg18
g12
((lp2737
g1716
atRp2738
sbag1721
ag1757
ag1
(g8
g3
NtRp2739
(dp2740
g11
g12
((lp2741
I7
aI1
aI3
aI9
atRp2742
sg15
I14400
sg16
g12
((lp2743
g957
ag1
(g8
g3
NtRp2744
(dp2745
g11
g12
((lp2746
I9
aI3
aI7
atRp2747
sg15
I16725
sg16
g12
((lp2748
g490
ag938
ag1
(g8
g3
NtRp2749
(dp2750
g11
g12
((lp2751
I9
aI7
atRp2752
sg15
I21600
sg16
g12
((lp2753
g472
ag58
atRp2754
sg18
g12
((lp2755
g1
(g8
g3
NtRp2756
(dp2757
g11
g12
((lp2758
I9
aI2
aI7
atRp2759
sg15
I15600
sg16
g12
((lp2760
g514
ag645
ag2749
atRp2761
sg18
g12
((lp2762
g690
atRp2763
sbag2744
ag1
(g8
g3
NtRp2764
(dp2765
g11
g12
((lp2766
I1
aI7
aI9
atRp2767
sg15
I12325
sg16
g12
((lp2768
g64
ag2749
ag467
atRp2769
sg18
g12
((lp2770
g690
ag2739
atRp2771
sbatRp2772
sbatRp2773
sg18
g12
((lp2774
g2739
atRp2775
sbag1144
ag2764
atRp2776
sg18
g12
((ltRp2777
sbatRp2778
sbag1120
ag1360
ag1132
atRp2779
sg18
g12
((lp2780
g1806
atRp2781
sbag1811
ag2421
atRp2782
sbag1816
ag1120
ag2426
atRp2783
sbatRp2784
sg18
g12
((lp2785
g1139
ag1115
atRp2786
sbag1726
ag1816
atRp2787
sg18
g12
((lp2788
g1806
atRp2789
sbag1103
ag195
ag2080
ag2452
ag2357
ag1639
atRp2790
sbag1065
ag1360
ag367
atRp2791
sg18
g12
((lp2792
g1806
ag2447
ag1670
ag2384
ag2099
ag2352
atRp2793
sbag1319
ag1430
ag1811
ag1663
ag2440
ag1
(g8
g3
NtRp2794
(dp2795
g11
g12
((lp2796
I1
aI2
aI13
aI6
atRp2797
sg15
I11525
sg16
g12
((lp2798
g402
ag414
ag1065
ag1
(g8
g3
NtRp2799
(dp2800
g11
g12
((lp2801
I1
aI13
aI6
atRp2802
sg15
I10600
sg16
g12
((lp2803
g443
ag1
(g8
g3
NtRp2804
(dp2805
g11
g12
((lp2806
I13
aI6
atRp2807
sg15
I21875
sg16
g12
((lp2808
g389
ag175
atRp2809
sg18
g12
((lp2810
g2799
ag414
atRp2811
sbag395
atRp2812
sg18
g12
((lp2813
g2794
atRp2814
sbatRp2815
sg18
g12
((ltRp2816
sbag1
(g8
g3
NtRp2817
(dp2818
g11
g12
((lp2819
I1
aI2
aI14
aI6
atRp2820
sg15
I12275
sg16
g12
((lp2821
g426
ag119
ag438
ag1065
atRp2822
sg18
g12
((ltRp2823
sbag1060
ag2510
atRp2824
sbag2073
ag628
atRp2825
sg18
g12
((lp2826
g2099
ag2145
atRp2827
sbag2092
ag2150
atRp2828
sbag1041
ag2073
ag2085
atRp2829
sbatRp2830
sg18
g12
((lp2831
g2150
ag2068
atRp2832
sbag2471
ag1447
ag1029
ag1435
ag2426
ag1336
atRp2833
sbag712
ag419
atRp2834
sg18
g12
((lp2835
g1430
ag1024
ag2068
ag1331
ag2357
atRp2836
sbag2471
ag1396
atRp2837
sg18
g12
((lp2838
g1425
atRp2839
sbag2452
ag2440
atRp2840
sbag1372
ag1192
ag2471
ag1005
atRp2841
sbag64
atRp2842
sg18
g12
((lp2843
g1000
ag2440
ag1367
ag1199
atRp2844
sbag993
ag2471
ag1435
atRp2845
sg18
g12
((lp2846
g1425
ag2402
atRp2847
sbag1403
ag1175
ag1493
ag2021
atRp2848
sbag981
ag1396
ag1384
ag1180
ag2471
atRp2849
sbag974
ag550
atRp2850
sg18
g12
((lp2851
g2021
atRp2852
sbag2121
ag969
atRp2853
sbag561
atRp2854
sg18
g12
((lp2855
g2021
ag635
ag964
atRp2856
sbag2121
ag957
ag568
atRp2857
sg18
g12
((lp2858
g2111
atRp2859
sbag952
ag1478
ag2739
ag928
ag1367
ag1493
atRp2860
sbatRp2861
sg18
g12
((lp2862
g2447
ag1485
ag1500
ag2111
atRp2863
sbag2116
ag1223
ag2452
ag1391
atRp2864
sbag1372
ag2744
ag2121
ag1384
ag957
ag933
ag1228
atRp2865
sbag1551
atRp2866
sg18
g12
((lp2867
g928
atRp2868
sbag1558
ag957
atRp2869
sg18
g12
((ltRp2870
sbag908
atRp2871
sbatRp2872
sg18
g12
((ltRp2873
sbag1565
ag1589
ag1663
ag1517
ag623
atRp2874
sbag1570
ag1656
ag1582
ag913
atRp2875
sbag712
atRp2876
sg18
g12
((lp2877
g1517
ag1631
ag1601
atRp2878
sbag877
ag1522
ag1606
atRp2879
sbag263
ag1551
atRp2880
sg18
g12
((lp2881
g872
ag1631
atRp2882
sbag1558
ag865
ag1522
atRp2883
sg18
g12
((lp2884
g1512
atRp2885
sbag2187
ag860
ag2168
ag1931
ag1505
ag1442
ag2330
ag1466
ag1151
ag1493
ag2599
atRp2886
sbatRp2887
sg18
g12
((lp2888
g855
atRp2889
sbag1505
ag848
ag1
(g8
g3
NtRp2890
(dp2891
g11
g12
((lp2892
I1
aI2
aI3
aI12
atRp2893
sg15
I10975
sg16
g12
((lp2894
g817
ag790
ag367
ag1
(g8
g3
NtRp2895
(dp2896
g11
g12
((lp2897
I2
aI3
aI12
atRp2898
sg15
I14025
sg16
g12
((lp2899
g760
ag205
ag822
atRp2900
sg18
g12
((lp2901
g750
ag2890
atRp2902
sbatRp2903
sg18
g12
((lp2904
g855
atRp2905
sbatRp2906
sg18
g12
((ltRp2907
sbatRp2908
sbag860
atRp2909
sbag829
atRp2910
sbatRp2911
sg18
g12
((lp2912
g750
ag848
atRp2913
sbag2676
ag2895
ag1089
ag817
atRp2914
sbatRp2915
sg18
g12
((lp2916
g848
ag1072
ag2671
ag2890
atRp2917
sbag2684
ag841
ag1077
atRp2918
sbag760
atRp2919
sg18
g12
((lp2920
g785
ag860
ag2890
atRp2921
sbag2684
ag154
atRp2922
sg18
g12
((ltRp2923
sbatRp2924
sbag2684
ag2676
atRp2925
sbag1082
ag760
ag795
ag822
ag807
ag834
atRp2926
sbatRp2927
sg18
g12
((lp2928
g778
ag790
ag2895
ag755
atRp2929
sbag263
ag834
atRp2930
sg18
g12
((lp2931
g750
ag860
atRp2932
sbag743
ag2895
ag829
atRp2933
sg18
g12
((lp2934
g855
atRp2935
sbag738
ag1837
ag1391
ag1259
ag2238
ag1631
ag1795
ag2357
ag1505
ag2369
atRp2936
sbag731
ag719
atRp2937
sg18
g12
((lp2938
g2182
atRp2939
sbag2187
atRp2940
sbag2200
atRp2941
sbag407
ag712
atRp2942
sg18
g12
((lp2943
g738
ag2207
atRp2944
sbag743
ag889
ag1
(g8
g3
NtRp2945
(dp2946
g11
g12
((lp2947
I16
aI2
aI4
atRp2948
sg15
I10275
sg16
g12
((lp2949
g20
ag712
ag1
(g8
g3
NtRp2950
(dp2951
g11
g12
((lp2952
I16
aI4
atRp2953
sg15
I13325
sg16
g12
((lp2954
g25
ag245
atRp2955
sg18
g12
((lp2956
g2945
ag1
(g8
g3
NtRp2957
(dp2958
g11
g12
((lp2959
I16
aI1
aI4
atRp2960
sg15
I10150
sg16
g12
((lp2961
g240
ag2950
ag1
(g8
g3
NtRp2962
(dp2963
g11
g12
((lp2964
I16
aI1
atRp2965
sg15
I10225
sg16
g12
((lp2966
g25
ag69
atRp2967
sg18
g12
((lp2968
g1
(g8
g3
NtRp2969
(dp2970
g11
g12
((lp2971
I16
aI1
aI6
atRp2972
sg15
I11825
sg16
g12
((lp2973
g443
ag1
(g8
g3
NtRp2974
(dp2975
g11
g12
((lp2976
I16
aI6
atRp2977
sg15
I13675
sg16
g12
((lp2978
g25
ag175
atRp2979
sg18
g12
((lp2980
g2969
atRp2981
sbag2962
atRp2982
sg18
g12
((ltRp2983
sbag1
(g8
g3
NtRp2984
(dp2985
g11
g12
((lp2986
I16
aI1
aI2
atRp2987
sg15
I20800
sg16
g12
((lp2988
g112
ag20
ag2962
atRp2989
sg18
g12
((lp2990
g1
(g8
g3
NtRp2991
(dp2992
g11
g12
((lp2993
I16
aI1
aI2
aI4
atRp2994
sg15
I12775
sg16
g12
((lp2995
g2945
ag2957
ag707
ag2984
atRp2996
sg18
g12
((ltRp2997
sbag1
(g8
g3
NtRp2998
(dp2999
g11
g12
((lp3000
I16
aI1
aI2
aI3
atRp3001
sg15
I11200
sg16
g12
((lp3002
g1
(g8
g3
NtRp3003
(dp3004
g11
g12
((lp3005
I16
aI1
aI3
atRp3006
sg15
I17400
sg16
g12
((lp3007
g310
ag1
(g8
g3
NtRp3008
(dp3009
g11
g12
((lp3010
I16
aI3
atRp3011
sg15
I10225
sg16
g12
((lp3012
g25
ag164
atRp3013
sg18
g12
((lp3014
g1
(g8
g3
NtRp3015
(dp3016
g11
g12
((lp3017
I16
aI2
aI3
atRp3018
sg15
I13350
sg16
g12
((lp3019
g205
ag20
ag3008
atRp3020
sg18
g12
((lp3021
g2998
atRp3022
sbag3003
atRp3023
sbag2962
atRp3024
sg18
g12
((lp3025
g2998
atRp3026
sbag2984
ag367
ag3015
atRp3027
sg18
g12
((ltRp3028
sbatRp3029
sbag2957
ag3003
ag1
(g8
g3
NtRp3030
(dp3031
g11
g12
((lp3032
I16
aI1
aI5
atRp3033
sg15
I13650
sg16
g12
((lp3034
g147
ag2962
ag31
atRp3035
sg18
g12
((ltRp3036
sbatRp3037
sbatRp3038
sg18
g12
((lp3039
g2991
atRp3040
sbatRp3041
sbatRp3042
sg18
g12
((lp3043
g2991
atRp3044
sbag2243
ag2616
ag829
ag1842
ag707
ag1
(g8
g3
NtRp3045
(dp3046
g11
g12
((lp3047
I2
aI4
aI18
atRp3048
sg15
I10925
sg16
g12
((lp3049
g1
(g8
g3
NtRp3050
(dp3051
g11
g12
((lp3052
I18
aI4
atRp3053
sg15
I20250
sg16
g12
((lp3054
g1
(g8
g3
NtRp3055
(dp3056
g11
g12
((lp3057
I18
atRp3058
sg15
I17963
sg16
g12
((ltRp3059
sg18
g12
((lp3060
g1
(g8
g3
NtRp3061
(dp3062
g11
g12
((lp3063
I18
aI3
atRp3064
sg15
I10875
sg16
g12
((lp3065
g3055
ag164
atRp3066
sg18
g12
((lp3067
g1
(g8
g3
NtRp3068
(dp3069
g11
g12
((lp3070
I1
aI18
aI3
atRp3071
sg15
I12925
sg16
g12
((lp3072
g3061
ag310
ag1
(g8
g3
NtRp3073
(dp3074
g11
g12
((lp3075
I1
aI18
atRp3076
sg15
I16475
sg16
g12
((lp3077
g3055
ag69
atRp3078
sg18
g12
((lp3079
g3068
ag1
(g8
g3
NtRp3080
(dp3081
g11
g12
((lp3082
I1
aI18
aI4
atRp3083
sg15
I13300
sg16
g12
((lp3084
g240
ag3050
ag3073
atRp3085
sg18
g12
((lp3086
g1
(g8
g3
NtRp3087
(dp3088
g11
g12
((lp3089
I1
aI2
aI4
aI18
atRp3090
sg15
I24650
sg16
g12
((lp3091
g1
(g8
g3
NtRp3092
(dp3093
g11
g12
((lp3094
I1
aI2
aI18
atRp3095
sg15
I28675
sg16
g12
((lp3096
g112
ag1
(g8
g3
NtRp3097
(dp3098
g11
g12
((lp3099
I2
aI18
atRp3100
sg15
I17900
sg16
g12
((lp3101
g3055
ag9
atRp3102
sg18
g12
((lp3103
g3045
ag1
(g8
g3
NtRp3104
(dp3105
g11
g12
((lp3106
I18
aI3
aI2
atRp3107
sg15
I10125
sg16
g12
((lp3108
g205
ag3097
ag3061
atRp3109
sg18
g12
((lp3110
g1
(g8
g3
NtRp3111
(dp3112
g11
g12
((lp3113
I1
aI18
aI3
aI2
atRp3114
sg15
I10225
sg16
g12
((lp3115
g3092
ag3068
ag367
ag3104
atRp3116
sg18
g12
((ltRp3117
sbatRp3118
sbag3092
atRp3119
sbag3073
atRp3120
sg18
g12
((lp3121
g3111
ag3087
atRp3122
sbag3045
ag707
ag3080
atRp3123
sg18
g12
((ltRp3124
sbatRp3125
sbag3092
atRp3126
sbatRp3127
sg18
g12
((lp3128
g3111
atRp3129
sbag3104
atRp3130
sbag3073
ag3097
ag3050
atRp3131
sbag245
atRp3132
sg18
g12
((lp3133
g3045
ag3080
atRp3134
sbag3097
ag712
atRp3135
sg18
g12
((lp3136
g3087
atRp3137
sbag1029
ag2061
ag533
ag1396
ag509
ag1
(g8
g3
NtRp3138
(dp3139
g11
g12
((lp3140
I17
aI2
aI4
atRp3141
sg15
I11625
sg16
g12
((lp3142
g348
ag712
ag1
(g8
g3
NtRp3143
(dp3144
g11
g12
((lp3145
I17
aI4
atRp3146
sg15
I10950
sg16
g12
((lp3147
g327
ag245
atRp3148
sg18
g12
((lp3149
g1
(g8
g3
NtRp3150
(dp3151
g11
g12
((lp3152
I1
aI4
aI17
atRp3153
sg15
I66575
sg16
g12
((lp3154
g240
ag322
ag3143
atRp3155
sg18
g12
((lp3156
g1
(g8
g3
NtRp3157
(dp3158
g11
g12
((lp3159
I1
aI2
aI4
aI17
atRp3160
sg15
I10375
sg16
g12
((lp3161
g355
ag3150
ag707
ag3138
atRp3162
sg18
g12
((ltRp3163
sbatRp3164
sbag3138
atRp3165
sbatRp3166
sg18
g12
((lp3167
g3157
atRp3168
sbatRp3169
sbag112
atRp3170
sg18
g12
((lp3171
g702
ag2991
ag2207
ag1517
ag2009
ag3157
ag3087
ag2611
ag1307
ag2322
ag1430
ag1403
ag1951
ag1505
ag848
atRp3172
sbag1156
ag509
atRp3173
sg18
g12
((lp3174
g1716
ag1768
atRp3175
sbag690
ag1745
ag1811
ag1
(g8
g3
NtRp3176
(dp3177
g11
g12
((lp3178
I8
aI1
aI2
aI9
atRp3179
sg15
I15550
sg16
g12
((lp3180
g1
(g8
g3
NtRp3181
(dp3182
g11
g12
((lp3183
I8
aI1
aI9
atRp3184
sg15
I19125
sg16
g12
((lp3185
g467
ag1
(g8
g3
NtRp3186
(dp3187
g11
g12
((lp3188
I8
aI9
atRp3189
sg15
I17925
sg16
g12
((lp3190
g472
ag555
atRp3191
sg18
g12
((lp3192
g3181
ag1
(g8
g3
NtRp3193
(dp3194
g11
g12
((lp3195
I8
aI9
aI2
atRp3196
sg15
I20825
sg16
g12
((lp3197
g3186
ag597
ag514
atRp3198
sg18
g12
((lp3199
g3176
atRp3200
sbatRp3201
sbag561
atRp3202
sg18
g12
((lp3203
g3176
atRp3204
sbag695
ag3193
ag628
atRp3205
sg18
g12
((ltRp3206
sbag1721
atRp3207
sbag2756
ag2764
ag652
atRp3208
sg18
g12
((ltRp3209
sbag908
ag952
ag1403
ag1211
ag2440
ag635
atRp3210
sbag1396
ag1216
ag2756
ag945
ag640
ag664
ag1017
ag913
atRp3211
sbag974
atRp3212
sg18
g12
((lp3213
g635
ag2116
atRp3214
sbag652
ag628
ag969
atRp3215
sg18
g12
((lp3216
g2111
atRp3217
sbag2009
ag3176
ag1283
ag2104
ag1060
ag623
atRp3218
sbag616
ag604
ag901
atRp3219
sg18
g12
((ltRp3220
sbatRp3221
sbatRp3222
sbag894
ag597
atRp3223
sg18
g12
((lp3224
g623
atRp3225
sbag3193
ag1264
ag2073
ag640
ag2061
ag628
ag592
atRp3226
sbag585
atRp3227
sg18
g12
((lp3228
g1283
ag2056
ag1271
atRp3229
sbag2033
atRp3230
sbatRp3231
sg18
g12
((lp3232
g1247
ag1271
ag2040
atRp3233
sbag1264
ag2121
ag568
ag2085
ag1252
atRp3234
sbatRp3235
sg18
g12
((lp3236
g2168
ag2092
ag2040
ag2104
ag964
atRp3237
sbag3181
ag1053
ag616
ag2014
ag2033
ag628
ag969
atRp3238
sbag609
ag573
ag974
ag1046
ag597
ag3186
ag585
ag550
atRp3239
sbatRp3240
sg18
g12
((lp3241
g545
ag981
ag1041
ag2014
ag2061
ag1252
atRp3242
sbag585
atRp3243
sg18
g12
((lp3244
g1247
ag2056
ag2028
atRp3245
sbag2255
ag1240
ag1778
ag1180
ag533
ag1606
ag1168
ag1336
atRp3246
sbag712
ag526
atRp3247
sg18
g12
((lp3248
g1415
ag1773
ag2369
ag1601
ag1331
ag1307
ag2056
atRp3249
sbag2291
ag2561
ag1324
ag1216
ag1582
ag521
ag2676
ag592
ag2645
ag1288
ag200
ag1889
atRp3250
sbag478
ag514
atRp3251
sg18
g12
((lp3252
g1745
ag1733
ag1773
atRp3253
sbag2756
ag3193
ag1816
ag1726
ag695
ag509
atRp3254
sbag712
ag502
atRp3255
sg18
g12
((lp3256
g702
ag1795
ag1773
atRp3257
sbag1778
ag1156
ag2426
atRp3258
sbatRp3259
sg18
g12
((lp3260
g1795
ag1151
atRp3261
sbag2744
ag1144
ag1726
ag1120
atRp3262
sbatRp3263
sg18
g12
((lp3264
g1757
ag1733
atRp3265
sbag1750
ag1778
ag521
atRp3266
sbag467
ag490
ag2749
ag1
(g8
g3
NtRp3267
(dp3268
g11
g12
((lp3269
I9
aI11
atRp3270
sg15
I12950
sg16
g12
((lp3271
g472
ag280
atRp3272
sg18
g12
((lp3273
g1
(g8
g3
NtRp3274
(dp3275
g11
g12
((lp3276
I1
aI11
aI9
atRp3277
sg15
I12375
sg16
g12
((lp3278
g467
ag3267
ag298
atRp3279
sg18
g12
((ltRp3280
sbatRp3281
sbag1125
ag502
ag3186
ag1
(g8
g3
NtRp3282
(dp3283
g11
g12
((lp3284
I9
aI10
atRp3285
sg15
I12300
sg16
g12
((lp3286
g472
ag47
atRp3287
sg18
g12
((lp3288
g462
atRp3289
sbag514
atRp3290
sbag69
atRp3291
sg18
g12
((lp3292
g3181
ag2764
ag462
ag3274
ag1750
ag1144
ag1132
ag695
ag1156
atRp3293
sbag3282
ag455
atRp3294
sg18
g12
((ltRp3295
sbag1558
ag1534
ag1522
ag616
ag921
ag450
ag901
atRp3296
sbag1649
atRp3297
sg18
g12
((lp3298
g1663
ag1675
atRp3299
sbag1348
ag1077
ag2799
ag1065
ag1053
ag1132
ag1360
ag1972
ag1005
ag2969
ag2515
ag1435
ag438
atRp3300
sbag124
ag431
atRp3301
sg18
g12
((lp3302
g2817
atRp3303
sbag426
atRp3304
sbag419
ag2566
atRp3305
sg18
g12
((lp3306
g2817
atRp3307
sbag1324
ag1029
ag2503
ag2073
ag1065
ag1656
ag1089
ag1108
ag1017
ag1816
ag414
atRp3308
sbag407
ag2804
atRp3309
sg18
g12
((lp3310
g2794
atRp3311
sbag2645
ag719
atRp3312
sbag395
atRp3313
sg18
g12
((lp3314
g2794
ag2640
ag2207
ag374
atRp3315
sbag2192
ag2657
ag2799
ag2200
atRp3316
sbag724
ag2804
ag2650
ag384
ag407
atRp3317
sbatRp3318
sg18
g12
((lp3319
g379
ag731
ag2192
atRp3320
sbag407
ag205
atRp3321
sg18
g12
((lp3322
g374
ag738
atRp3323
sbag2192
ag367
ag402
atRp3324
sg18
g12
((lp3325
g2182
atRp3326
sbag362
ag1103
ag2998
ag2226
ag1721
ag952
ag1295
ag1923
ag1565
ag2104
ag2890
ag2592
ag1505
ag3111
ag1
(g8
g3
NtRp3327
(dp3328
g11
g12
((lp3329
I19
aI1
aI2
aI3
atRp3330
sg15
I17175
sg16
g12
((lp3331
g1
(g8
g3
NtRp3332
(dp3333
g11
g12
((lp3334
I1
aI2
aI19
atRp3335
sg15
I23975
sg16
g12
((lp3336
g112
ag228
ag217
atRp3337
sg18
g12
((lp3338
g3327
atRp3339
sbag212
ag367
ag1
(g8
g3
NtRp3340
(dp3341
g11
g12
((lp3342
I19
aI1
aI3
atRp3343
sg15
I11700
sg16
g12
((lp3344
g310
ag1
(g8
g3
NtRp3345
(dp3346
g11
g12
((lp3347
I3
aI19
atRp3348
sg15
I15425
sg16
g12
((lp3349
g222
ag164
atRp3350
sg18
g12
((lp3351
g212
ag3340
atRp3352
sbag228
atRp3353
sg18
g12
((lp3354
g3327
atRp3355
sbatRp3356
sg18
g12
((ltRp3357
sbatRp3358
sbag1
(g8
g3
NtRp3359
(dp3360
g11
g12
((lp3361
I17
aI2
aI3
atRp3362
sg15
I12700
sg16
g12
((lp3363
g205
ag1
(g8
g3
NtRp3364
(dp3365
g11
g12
((lp3366
I17
aI3
atRp3367
sg15
I11950
sg16
g12
((lp3368
g327
ag164
atRp3369
sg18
g12
((lp3370
g317
ag3359
atRp3371
sbag348
atRp3372
sg18
g12
((lp3373
g362
atRp3374
sbatRp3375
sg18
g12
((ltRp3376
sbag3157
atRp3377
sbag3138
ag3359
atRp3378
sbag3143
ag322
ag3364
atRp3379
sbag69
atRp3380
sg18
g12
((lp3381
g3150
ag317
ag340
ag355
atRp3382
sbag3364
atRp3383
sg18
g12
((lp3384
g362
atRp3385
sbag1916
ag568
ag3068
ag865
ag1
(g8
g3
NtRp3386
(dp3387
g11
g12
((lp3388
I1
aI3
aI21
atRp3389
sg15
I19450
sg16
g12
((lp3390
g310
ag1
(g8
g3
NtRp3391
(dp3392
g11
g12
((lp3393
I1
aI21
atRp3394
sg15
I24100
sg16
g12
((lp3395
g1
(g8
g3
NtRp3396
(dp3397
g11
g12
((lp3398
I21
atRp3399
sg15
I15491
sg16
g12
((ltRp3400
sg18
g12
((lp3401
g1
(g8
g3
NtRp3402
(dp3403
g11
g12
((lp3404
I4
aI21
atRp3405
sg15
I10000
sg16
g12
((lp3406
g3396
ag245
atRp3407
sg18
g12
((ltRp3408
sbag1
(g8
g3
NtRp3409
(dp3410
g11
g12
((lp3411
I2
aI21
atRp3412
sg15
I27675
sg16
g12
((lp3413
g3396
ag9
atRp3414
sg18
g12
((lp3415
g1
(g8
g3
NtRp3416
(dp3417
g11
g12
((lp3418
I2
aI3
aI21
atRp3419
sg15
I50150
sg16
g12
((lp3420
g1
(g8
g3
NtRp3421
(dp3422
g11
g12
((lp3423
I3
aI21
atRp3424
sg15
I22675
sg16
g12
((lp3425
g3396
ag164
atRp3426
sg18
g12
((lp3427
g3386
ag3416
atRp3428
sbag3409
ag205
atRp3429
sg18
g12
((ltRp3430
sbag1
(g8
g3
NtRp3431
(dp3432
g11
g12
((lp3433
I1
aI2
aI21
atRp3434
sg15
I14800
sg16
g12
((lp3435
g112
ag3391
ag3409
atRp3436
sg18
g12
((ltRp3437
sbatRp3438
sbag3391
ag3421
atRp3439
sbag69
atRp3440
sg18
g12
((lp3441
g3386
ag3431
atRp3442
sbag3421
atRp3443
sg18
g12
((ltRp3444
sbag1558
ag1
(g8
g3
NtRp3445
(dp3446
g11
g12
((lp3447
I1
aI3
aI23
atRp3448
sg15
I16575
sg16
g12
((lp3449
g310
ag1
(g8
g3
NtRp3450
(dp3451
g11
g12
((lp3452
I1
aI23
atRp3453
sg15
I22150
sg16
g12
((lp3454
g69
ag1
(g8
g3
NtRp3455
(dp3456
g11
g12
((lp3457
I23
atRp3458
sg15
I14176
sg16
g12
((ltRp3459
sg18
g12
((lp3460
g1
(g8
g3
NtRp3461
(dp3462
g11
g12
((lp3463
I3
aI23
atRp3464
sg15
I11300
sg16
g12
((lp3465
g164
ag3455
atRp3466
sg18
g12
((lp3467
g3445
atRp3468
sbag1
(g8
g3
NtRp3469
(dp3470
g11
g12
((lp3471
I2
aI23
atRp3472
sg15
I36700
sg16
g12
((lp3473
g9
ag3455
atRp3474
sg18
g12
((lp3475
g1
(g8
g3
NtRp3476
(dp3477
g11
g12
((lp3478
I1
aI2
aI23
atRp3479
sg15
I20100
sg16
g12
((lp3480
g112
ag3469
ag3450
atRp3481
sg18
g12
((ltRp3482
sbatRp3483
sbag3450
atRp3484
sbatRp3485
sg18
g12
((lp3486
g3445
ag3476
atRp3487
sbag3461
atRp3488
sg18
g12
((ltRp3489
sbag1
(g8
g3
NtRp3490
(dp3491
g11
g12
((lp3492
I1
aI3
aI22
atRp3493
sg15
I16950
sg16
g12
((lp3494
g310
ag1
(g8
g3
NtRp3495
(dp3496
g11
g12
((lp3497
I1
aI22
atRp3498
sg15
I18425
sg16
g12
((lp3499
g69
ag1
(g8
g3
NtRp3500
(dp3501
g11
g12
((lp3502
I22
atRp3503
sg15
I14601
sg16
g12
((ltRp3504
sg18
g12
((lp3505
g1
(g8
g3
NtRp3506
(dp3507
g11
g12
((lp3508
I3
aI22
atRp3509
sg15
I11250
sg16
g12
((lp3510
g164
ag3500
atRp3511
sg18
g12
((lp3512
g3490
atRp3513
sbag3495
ag1
(g8
g3
NtRp3514
(dp3515
g11
g12
((lp3516
I2
aI22
atRp3517
sg15
I12475
sg16
g12
((lp3518
g9
ag3500
atRp3519
sg18
g12
((lp3520
g1
(g8
g3
NtRp3521
(dp3522
g11
g12
((lp3523
I1
aI2
aI22
atRp3524
sg15
I12800
sg16
g12
((lp3525
g112
ag3495
ag3514
atRp3526
sg18
g12
((ltRp3527
sbatRp3528
sbatRp3529
sbatRp3530
sg18
g12
((lp3531
g3521
ag3490
atRp3532
sbag3506
atRp3533
sg18
g12
((ltRp3534
sbag367
ag3003
ag154
ag1
(g8
g3
NtRp3535
(dp3536
g11
g12
((lp3537
I24
aI1
aI3
atRp3538
sg15
I15475
sg16
g12
((lp3539
g310
ag1
(g8
g3
NtRp3540
(dp3541
g11
g12
((lp3542
I24
aI3
atRp3543
sg15
I10325
sg16
g12
((lp3544
g164
ag94
atRp3545
sg18
g12
((lp3546
g3535
atRp3547
sbag89
atRp3548
sg18
g12
((ltRp3549
sbag957
ag1360
ag1144
ag1
(g8
g3
NtRp3550
(dp3551
g11
g12
((lp3552
I1
aI3
aI20
atRp3553
sg15
I17775
sg16
g12
((lp3554
g310
ag1
(g8
g3
NtRp3555
(dp3556
g11
g12
((lp3557
I1
aI20
atRp3558
sg15
I21975
sg16
g12
((lp3559
g1
(g8
g3
NtRp3560
(dp3561
g11
g12
((lp3562
I20
atRp3563
sg15
I16274
sg16
g12
((ltRp3564
sg18
g12
((lp3565
g1
(g8
g3
NtRp3566
(dp3567
g11
g12
((lp3568
I3
aI20
atRp3569
sg15
I27750
sg16
g12
((lp3570
g3560
ag164
atRp3571
sg18
g12
((lp3572
g1
(g8
g3
NtRp3573
(dp3574
g11
g12
((lp3575
I2
aI3
aI20
atRp3576
sg15
I57975
sg16
g12
((lp3577
g3566
ag1
(g8
g3
NtRp3578
(dp3579
g11
g12
((lp3580
I2
aI20
atRp3581
sg15
I33525
sg16
g12
((lp3582
g3560
ag9
atRp3583
sg18
g12
((lp3584
g3573
ag1
(g8
g3
NtRp3585
(dp3586
g11
g12
((lp3587
I1
aI2
aI20
atRp3588
sg15
I17725
sg16
g12
((lp3589
g112
ag3555
ag3578
atRp3590
sg18
g12
((ltRp3591
sbatRp3592
sbag205
atRp3593
sg18
g12
((ltRp3594
sbag3550
atRp3595
sbag3578
ag3555
ag1
(g8
g3
NtRp3596
(dp3597
g11
g12
((lp3598
I20
aI4
atRp3599
sg15
I11150
sg16
g12
((lp3600
g3560
ag245
atRp3601
sg18
g12
((lp3602
g1
(g8
g3
NtRp3603
(dp3604
g11
g12
((lp3605
I1
aI4
aI20
atRp3606
sg15
I11900
sg16
g12
((lp3607
g240
ag3555
ag3596
atRp3608
sg18
g12
((ltRp3609
sbatRp3610
sbatRp3611
sbag69
atRp3612
sg18
g12
((lp3613
g3550
ag3603
ag3585
atRp3614
sbag3566
atRp3615
sg18
g12
((ltRp3616
sbag305
ag790
ag2192
ag3340
ag2585
atRp3617
sbag298
ag275
atRp3618
sg18
g12
((lp3619
g2226
ag2330
ag2486
ag2274
atRp3620
sbag2279
ag293
ag2515
ag3274
ag676
ag2315
atRp3621
sbag286
atRp3622
sg18
g12
((lp3623
g2226
ag2286
ag659
ag2510
ag2322
atRp3624
sbag664
ag2503
ag2231
ag2291
ag2243
atRp3625
sbag2248
ag275
ag298
ag2496
ag669
ag2260
ag3267
atRp3626
sbatRp3627
sg18
g12
((lp3628
g2491
ag270
ag305
ag2231
ag2267
atRp3629
sbag263
ag2248
atRp3630
sg18
g12
((lp3631
g2330
ag2238
atRp3632
sbag743
ag865
ag1447
ag497
ag1240
ag258
ag1936
ag755
ag1384
ag1252
ag731
ag877
atRp3633
sbag2578
atRp3634
sg18
g12
((lp3635
g2599
atRp3636
sbag2604
ag2616
atRp3637
sbag3596
ag240
ag1034
ag2248
ag3402
ag1
(g8
g3
NtRp3638
(dp3639
g11
g12
((lp3640
I19
aI4
atRp3641
sg15
I18375
sg16
g12
((lp3642
g222
ag245
atRp3643
sg18
g12
((lp3644
g235
atRp3645
sbag502
ag712
ag2950
ag3143
ag538
ag3050
ag1847
ag986
ag834
ag882
ag724
ag550
ag263
atRp3646
sbag69
atRp3647
sg18
g12
((lp3648
g3150
ag2200
ag1156
ag235
ag2957
ag993
ag2604
ag1522
ag707
ag2014
ag3080
ag841
ag1435
ag3603
ag1168
ag2315
ag1944
ag865
atRp3649
sbag3638
ag228
atRp3650
sg18
g12
((ltRp3651
sbag3340
ag3332
atRp3652
sbag3638
ag3345
atRp3653
sbag9
atRp3654
sg18
g12
((lp3655
g212
ag3332
atRp3656
sbag3345
ag205
atRp3657
sg18
g12
((lp3658
g3327
atRp3659
sbag743
ag1904
ag3416
ag945
ag3573
ag1264
ag3015
ag3359
ag379
ag1108
ag1570
ag1726
ag2231
ag2573
ag2895
ag200
ag3104
ag367
atRp3660
sbag526
atRp3661
sg18
g12
((lp3662
g1577
ag2369
ag195
ag1223
ag1295
ag1733
ag1271
ag2298
atRp3663
sbag1324
ag1108
atRp3664
sg18
g12
((lp3665
g2384
ag2364
atRp3666
sbag1355
ag1454
atRp3667
sbag1192
ag1336
ag1324
ag1348
atRp3668
sbag2974
ag1046
ag443
ag170
ag2496
ag2804
ag1010
ag419
ag1034
ag1125
ag1649
ag1082
ag431
ag1977
atRp3669
sbatRp3670
sg18
g12
((lp3671
g188
ag1372
ag1360
ag1644
ag1447
ag1108
ag2491
ag2085
ag1120
atRp3672
sbag3061
ag3540
ag310
ag938
ag275
ag2578
ag490
ag3566
ag384
ag3506
ag263
ag573
ag3008
ag1551
ag159
ag205
ag3364
ag1909
ag3461
ag760
ag3421
ag3345
atRp3673
sbatRp3674
sg18
g12
((lp3675
g485
ag154
ag778
ag1546
ag580
ag2267
ag200
ag1240
ag188
ag1228
atRp3676
sbag310
atRp3677
sg18
g12
((lp3678
g785
ag2274
ag1541
ag1757
ag1295
ag1466
ag2040
ag1478
ag1355
atRp3679
sbag2279
ag2657
ag1534
ag3030
ag1204
ag142
ag2684
ag1865
ag1348
ag1288
ag1750
ag340
ag1168
ag2033
atRp3680
sbag124
ag135
atRp3681
sg18
g12
((lp3682
g2556
atRp3683
sbag2561
atRp3684
sbag251
ag2578
ag2566
ag431
ag124
atRp3685
sbatRp3686
sg18
g12
((lp3687
g119
ag142
ag2585
ag438
ag2604
atRp3688
sbag2566
atRp3689
sg18
g12
((lp3690
g2592
ag2556
ag2817
ag2611
atRp3691
sbag1
(g8
g3
NtRp3692
(dp3693
g11
g12
((lp3694
I1
aI2
aI25
atRp3695
sg15
I14600
sg16
g12
((lp3696
g112
ag1
(g8
g3
NtRp3697
(dp3698
g11
g12
((lp3699
I25
aI2
atRp3700
sg15
I10875
sg16
g12
((lp3701
g1
(g8
g3
NtRp3702
(dp3703
g11
g12
((lp3704
I25
atRp3705
sg15
I12714
sg16
g12
((ltRp3706
sg18
g12
((lp3707
g1
(g8
g3
NtRp3708
(dp3709
g11
g12
((lp3710
I1
aI25
atRp3711
sg15
I31825
sg16
g12
((lp3712
g3702
ag69
atRp3713
sg18
g12
((lp3714
g3692
atRp3715
sbag3697
atRp3716
sbag9
atRp3717
sg18
g12
((lp3718
g3692
atRp3719
sbag3708
atRp3720
sg18
g12
((ltRp3721
sbag293
ag1
(g8
g3
NtRp3722
(dp3723
g11
g12
((lp3724
I1
aI2
aI26
atRp3725
sg15
I13800
sg16
g12
((lp3726
g112
ag1
(g8
g3
NtRp3727
(dp3728
g11
g12
((lp3729
I1
aI26
atRp3730
sg15
I26450
sg16
g12
((lp3731
g1
(g8
g3
NtRp3732
(dp3733
g11
g12
((lp3734
I26
atRp3735
sg15
I12304
sg16
g12
((ltRp3736
sg18
g12
((lp3737
g1
(g8
g3
NtRp3738
(dp3739
g11
g12
((lp3740
I2
aI26
atRp3741
sg15
I23925
sg16
g12
((lp3742
g3732
ag9
atRp3743
sg18
g12
((lp3744
g3722
atRp3745
sbag3727
atRp3746
sbag69
atRp3747
sg18
g12
((lp3748
g3722
atRp3749
sbag3738
atRp3750
sg18
g12
((ltRp3751
sbag3521
ag402
ag1
(g8
g3
NtRp3752
(dp3753
g11
g12
((lp3754
I1
aI2
aI27
atRp3755
sg15
I15925
sg16
g12
((lp3756
g112
ag1
(g8
g3
NtRp3757
(dp3758
g11
g12
((lp3759
I2
aI27
atRp3760
sg15
I21050
sg16
g12
((lp3761
g9
ag1
(g8
g3
NtRp3762
(dp3763
g11
g12
((lp3764
I27
atRp3765
sg15
I11885
sg16
g12
((ltRp3766
sg18
g12
((lp3767
g1
(g8
g3
NtRp3768
(dp3769
g11
g12
((lp3770
I1
aI27
atRp3771
sg15
I28225
sg16
g12
((lp3772
g69
ag3762
atRp3773
sg18
g12
((lp3774
g3752
atRp3775
sbag3757
atRp3776
sbatRp3777
sg18
g12
((lp3778
g3752
atRp3779
sbag3768
atRp3780
sg18
g12
((ltRp3781
sbag3585
ag355
ag652
ag3431
ag1065
ag3476
ag707
ag367
ag2984
ag1
(g8
g3
NtRp3782
(dp3783
g11
g12
((lp3784
I1
aI2
aI29
atRp3785
sg15
I23250
sg16
g12
((lp3786
g112
ag1
(g8
g3
NtRp3787
(dp3788
g11
g12
((lp3789
I2
aI29
atRp3790
sg15
I10175
sg16
g12
((lp3791
g9
ag1
(g8
g3
NtRp3792
(dp3793
g11
g12
((lp3794
I29
atRp3795
sg15
I10850
sg16
g12
((ltRp3796
sg18
g12
((lp3797
g3787
ag1
(g8
g3
NtRp3798
(dp3799
g11
g12
((lp3800
I1
aI29
atRp3801
sg15
I14875
sg16
g12
((lp3802
g69
ag3792
atRp3803
sg18
g12
((lp3804
g3782
atRp3805
sbatRp3806
sbatRp3807
sg18
g12
((lp3808
g3782
atRp3809
sbag3798
atRp3810
sg18
g12
((ltRp3811
sbag901
ag107
ag1288
ag695
ag628
ag1
(g8
g3
NtRp3812
(dp3813
g11
g12
((lp3814
I1
aI2
aI28
atRp3815
sg15
I17300
sg16
g12
((lp3816
g112
ag1
(g8
g3
NtRp3817
(dp3818
g11
g12
((lp3819
I2
aI28
atRp3820
sg15
I10175
sg16
g12
((lp3821
g9
ag1
(g8
g3
NtRp3822
(dp3823
g11
g12
((lp3824
I28
atRp3825
sg15
I11395
sg16
g12
((ltRp3826
sg18
g12
((lp3827
g1
(g8
g3
NtRp3828
(dp3829
g11
g12
((lp3830
I1
aI28
atRp3831
sg15
I14725
sg16
g12
((lp3832
g69
ag3822
atRp3833
sg18
g12
((lp3834
g3812
atRp3835
sbag3817
atRp3836
sbatRp3837
sg18
g12
((lp3838
g3812
atRp3839
sbag3828
atRp3840
sg18
g12
((ltRp3841
sbag3332
ag3092
ag1877
ag817
atRp3842
sbag89
ag100
atRp3843
sg18
g12
((ltRp3844
sbatRp3845
sbag3540
ag89
atRp3846
sbatRp3847
sg18
g12
((lp3848
g107
ag3535
atRp3849
sbag3073
ag64
ag228
ag3708
ag147
ag310
ag3798
ag3555
ag3768
ag443
ag467
ag3828
ag298
ag3450
ag3727
ag1
(g8
g3
NtRp3850
(dp3851
g11
g12
((lp3852
I1
aI30
atRp3853
sg15
I11575
sg16
g12
((lp3854
g1
(g8
g3
NtRp3855
(dp3856
g11
g12
((lp3857
I30
atRp3858
sg15
I10579
sg16
g12
((ltRp3859
sg18
g12
((lp3860
g3850
atRp3861
sbag69
atRp3862
sg18
g12
((ltRp3863
sbag561
ag455
ag240
ag3495
ag795
ag124
ag322
ag3391
ag395
ag1870
ag1
(g8
g3
NtRp3864
(dp3865
g11
g12
((lp3866
I32
aI1
atRp3867
sg15
I14225
sg16
g12
((lp3868
g1
(g8
g3
NtRp3869
(dp3870
g11
g12
((lp3871
I32
atRp3872
sg15
I10009
sg16
g12
((ltRp3873
sg18
g12
((lp3874
g3864
atRp3875
sbag69
atRp3876
sg18
g12
((ltRp3877
sbag112
ag2962
atRp3878
sbatRp3879
sg18
g12
((lp3880
g652
ag676
ag2764
ag993
ag957
ag1204
ag921
ag1005
ag969
ag802
atRp3881
sbag645
ag986
ag2749
ag974
ag1010
ag669
ag807
ag1185
ag938
atRp3882
sbatRp3883
sg18
g12
((lp3884
g921
ag913
ag933
atRp3885
sbag455
ag882
ag894
ag1649
ag1551
ag42
ag609
ag3282
atRp3886
sbatRp3887
sg18
g12
((lp3888
g1534
ag1546
ag1582
ag1606
atRp3889
sbag181
ag771
ag135
ag526
ag1185
ag333
ag538
ag2650
ag31
ag1858
ag147
ag585
ag159
ag2260
ag478
atRp3890
sbag25
atRp3891
sg18
g12
((lp3892
g3030
atRp3893
sbag20
ag3008
ag2950
ag2962
ag2974
atRp3894
sbag9
atRp3895
sg18
g12
((lp3896
g2945
ag3015
ag2984
atRp3897
sbag419
ag597
ag822
ag3514
ag3469
ag514
ag217
ag645
ag3409
ag205
ag894
ag407
ag2566
ag3097
ag3738
ag3787
ag3817
ag1882
ag3757
ag286
ag712
ag100
ag348
ag526
ag3697
ag3578
ag112
atRp3898
sbag164
ag245
ag36
ag69
ag555
ag472
ag47
ag280
ag765
ag389
ag129
ag1852
ag25
ag327
ag3055
ag222
ag3560
ag3396
ag3500
ag3455
ag94
ag3702
ag3732
ag3762
ag3822
ag3792
ag3855
ag80
ag3869
ag58
ag175
asS'_topLevel'
p3899
(lp3900
g2379
asb.